GAS LISTING /tmp/ccPAOpUK.s 			page 1


   1              		.file	"kBuffer.cpp"
   2              		.option pic
   3              		.option norelax
   4              		.text
   5              	.Ltext0:
   6              		.align	2
   7              		.globl	_ZN7kBufferC2Ei
   9              	_ZN7kBufferC2Ei:
  10              	.LFB58:
  11              		.file 1 "src/kBuffer.cpp"
   1:src/kBuffer.cpp **** //
   2:src/kBuffer.cpp **** // Created by os on 5/22/24.
   3:src/kBuffer.cpp **** //
   4:src/kBuffer.cpp **** // iskoriscen buffer iz test primjera
   5:src/kBuffer.cpp **** 
   6:src/kBuffer.cpp **** #include "../h/kBuffer.hpp"
   7:src/kBuffer.cpp **** 
   8:src/kBuffer.cpp **** kBuffer::kBuffer(int _cap) : cap(_cap + 1), head(0), tail(0) {
  12              		.loc 1 8 1
  13              		.cfi_startproc
  14              	.LVL0:
  15 0000 130101FE 		addi	sp,sp,-32
  16              		.cfi_def_cfa_offset 32
  17 0004 233C1100 		sd	ra,24(sp)
  18 0008 23388100 		sd	s0,16(sp)
  19 000c 23349100 		sd	s1,8(sp)
  20 0010 23302101 		sd	s2,0(sp)
  21              		.cfi_offset 1, -8
  22              		.cfi_offset 8, -16
  23              		.cfi_offset 9, -24
  24              		.cfi_offset 18, -32
  25 0014 13040102 		addi	s0,sp,32
  26              		.cfi_def_cfa 8, 0
  27 0018 93040500 		mv	s1,a0
  28 001c 13890500 		mv	s2,a1
  29              	.LBB39:
  30              		.loc 1 8 39 is_stmt 0
  31 0020 9B871500 		addiw	a5,a1,1
  32 0024 1B850700 		sext.w	a0,a5
  33              	.LVL1:
  34              		.loc 1 8 60
  35 0028 23A0F400 		sw	a5,0(s1)
  36 002c 23A80400 		sw	zero,16(s1)
  37 0030 23AA0400 		sw	zero,20(s1)
   9:src/kBuffer.cpp ****     buffer = (char *) Allocator::_malloc(sizeof(int) * cap);
  38              		.loc 1 9 5 is_stmt 1
  39              		.loc 1 9 41 is_stmt 0
  40 0034 13152500 		slli	a0,a0,2
  41 0038 97000000 		call	_ZN9Allocator7_mallocEm@plt
  41      E7800000 
  42              	.LVL2:
  43              		.loc 1 9 12
  44 0040 23B4A400 		sd	a0,8(s1)
  10:src/kBuffer.cpp ****     itemAvailable = new kSemaphore(0);
  45              		.loc 1 10 5 is_stmt 1
  46              	.LVL3:
  47              	.LBB40:
GAS LISTING /tmp/ccPAOpUK.s 			page 2


  48              	.LBB41:
  49              		.file 2 "src/../h/../h/../h/sem.hpp"
   1:src/../h/../h/../h/sem.hpp **** //
   2:src/../h/../h/../h/sem.hpp **** // Created by os on 5/19/24.
   3:src/../h/../h/../h/sem.hpp **** //
   4:src/../h/../h/../h/sem.hpp **** 
   5:src/../h/../h/../h/sem.hpp **** #ifndef PROJECT_BASE_SEM_HPP
   6:src/../h/../h/../h/sem.hpp **** #define PROJECT_BASE_SEM_HPP
   7:src/../h/../h/../h/sem.hpp **** 
   8:src/../h/../h/../h/sem.hpp **** #include "../h/tcb.hpp"
   9:src/../h/../h/../h/sem.hpp **** #include "../h/list.hpp"
  10:src/../h/../h/../h/sem.hpp **** #include "../h/syscall_c.h"
  11:src/../h/../h/../h/sem.hpp **** #include "tipovi.hpp"
  12:src/../h/../h/../h/sem.hpp **** #include "Allocator.hpp"
  13:src/../h/../h/../h/sem.hpp **** 
  14:src/../h/../h/../h/sem.hpp **** class kSemaphore {
  15:src/../h/../h/../h/sem.hpp **** public:
  16:src/../h/../h/../h/sem.hpp ****     kSemaphore(uint64 init = 1): val(init) {}
  17:src/../h/../h/../h/sem.hpp **** 
  18:src/../h/../h/../h/sem.hpp ****     int closeSem();
  19:src/../h/../h/../h/sem.hpp ****     int tryWait();
  20:src/../h/../h/../h/sem.hpp ****     int timedWait(time_t time);
  21:src/../h/../h/../h/sem.hpp **** 
  22:src/../h/../h/../h/sem.hpp ****     int wait();
  23:src/../h/../h/../h/sem.hpp ****     int signal();
  24:src/../h/../h/../h/sem.hpp **** 
  25:src/../h/../h/../h/sem.hpp ****     int value() const{return val;}
  26:src/../h/../h/../h/sem.hpp **** 
  27:src/../h/../h/../h/sem.hpp ****     static int openSem(sem_t *handle, unsigned init);
  28:src/../h/../h/../h/sem.hpp **** 
  29:src/../h/../h/../h/sem.hpp ****     friend class Riscv;
  30:src/../h/../h/../h/sem.hpp **** 
  31:src/../h/../h/../h/sem.hpp ****     static List<TCB> blockedTimedWait;
  32:src/../h/../h/../h/sem.hpp **** 
  33:src/../h/../h/../h/sem.hpp ****     void* operator new(size_t size) {
  34:src/../h/../h/../h/sem.hpp ****         return Allocator::_malloc(size);
  50              		.loc 2 34 9
  51              		.loc 2 34 34 is_stmt 0
  52 0044 13050002 		li	a0,32
  53 0048 97000000 		call	_ZN9Allocator7_mallocEm@plt
  53      E7800000 
  54              	.LVL4:
  55              	.LBE41:
  56              	.LBE40:
  57              	.LBB42:
  58              	.LBB43:
  16:src/../h/../h/../h/sem.hpp **** 
  59              		.loc 2 16 42
  60 0050 23200500 		sw	zero,0(a0)
  61              	.LVL5:
  62              	.LBB44:
  63              	.LBB45:
  64              		.file 3 "src/../h/../h/../h/../h/list.hpp"
   1:src/../h/../h/../h/../h/list.hpp **** //
   2:src/../h/../h/../h/../h/list.hpp **** // Created by os on 5/16/24.
   3:src/../h/../h/../h/../h/list.hpp **** //
   4:src/../h/../h/../h/../h/list.hpp **** 
GAS LISTING /tmp/ccPAOpUK.s 			page 3


   5:src/../h/../h/../h/../h/list.hpp **** #ifndef PROJECT_BASE_LIST_HPP
   6:src/../h/../h/../h/../h/list.hpp **** #define PROJECT_BASE_LIST_HPP
   7:src/../h/../h/../h/../h/list.hpp **** 
   8:src/../h/../h/../h/../h/list.hpp **** #include "../h/Allocator.hpp"
   9:src/../h/../h/../h/../h/list.hpp **** //Lista preuzeta sa teamsa
  10:src/../h/../h/../h/../h/list.hpp **** 
  11:src/../h/../h/../h/../h/list.hpp **** template<typename T>
  12:src/../h/../h/../h/../h/list.hpp **** class List
  13:src/../h/../h/../h/../h/list.hpp **** {
  14:src/../h/../h/../h/../h/list.hpp **** private:
  15:src/../h/../h/../h/../h/list.hpp ****     struct Elem
  16:src/../h/../h/../h/../h/list.hpp ****     {
  17:src/../h/../h/../h/../h/list.hpp ****         T *data;
  18:src/../h/../h/../h/../h/list.hpp ****         Elem *next;
  19:src/../h/../h/../h/../h/list.hpp **** 
  20:src/../h/../h/../h/../h/list.hpp ****         Elem(T *data, Elem *next) : data(data), next(next) {}
  21:src/../h/../h/../h/../h/list.hpp **** 
  22:src/../h/../h/../h/../h/list.hpp ****         void* operator new(size_t size) {
  23:src/../h/../h/../h/../h/list.hpp ****             return Allocator::_malloc(size);
  24:src/../h/../h/../h/../h/list.hpp ****         }
  25:src/../h/../h/../h/../h/list.hpp **** 
  26:src/../h/../h/../h/../h/list.hpp ****         void operator delete(void* ptr) {
  27:src/../h/../h/../h/../h/list.hpp ****             Allocator::_mem_free(ptr);
  28:src/../h/../h/../h/../h/list.hpp ****         }
  29:src/../h/../h/../h/../h/list.hpp **** 
  30:src/../h/../h/../h/../h/list.hpp ****         void* operator new[](size_t size) {
  31:src/../h/../h/../h/../h/list.hpp ****             return Allocator::_malloc(size);
  32:src/../h/../h/../h/../h/list.hpp ****         }
  33:src/../h/../h/../h/../h/list.hpp **** 
  34:src/../h/../h/../h/../h/list.hpp ****         void operator delete[](void* ptr) {
  35:src/../h/../h/../h/../h/list.hpp ****             Allocator::_mem_free(ptr);
  36:src/../h/../h/../h/../h/list.hpp ****         }
  37:src/../h/../h/../h/../h/list.hpp ****     };
  38:src/../h/../h/../h/../h/list.hpp **** 
  39:src/../h/../h/../h/../h/list.hpp ****     Elem *head, *tail;
  40:src/../h/../h/../h/../h/list.hpp **** 
  41:src/../h/../h/../h/../h/list.hpp **** public:
  42:src/../h/../h/../h/../h/list.hpp ****     friend class TCB;
  43:src/../h/../h/../h/../h/list.hpp ****     friend class Riscv;
  44:src/../h/../h/../h/../h/list.hpp ****     friend class kSemaphore;
  45:src/../h/../h/../h/../h/list.hpp **** 
  46:src/../h/../h/../h/../h/list.hpp ****     List() : head(0), tail(0) {}
  65              		.loc 3 46 29
  66 0054 23340500 		sd	zero,8(a0)
  67 0058 23380500 		sd	zero,16(a0)
  68              	.LVL6:
  69              	.LBE45:
  70              	.LBE44:
  16:src/../h/../h/../h/sem.hpp **** 
  71              		.loc 2 16 42
  72 005c 230C0500 		sb	zero,24(a0)
  73              	.LVL7:
  74              	.LBE43:
  75              	.LBE42:
  76              		.loc 1 10 19
  77 0060 23B0A402 		sd	a0,32(s1)
  11:src/kBuffer.cpp ****     spaceAvailable = new kSemaphore(_cap);
GAS LISTING /tmp/ccPAOpUK.s 			page 4


  78              		.loc 1 11 5 is_stmt 1
  79              	.LVL8:
  80              	.LBB46:
  81              	.LBB47:
  82              		.loc 2 34 9
  83              		.loc 2 34 34 is_stmt 0
  84 0064 13050002 		li	a0,32
  85 0068 97000000 		call	_ZN9Allocator7_mallocEm@plt
  85      E7800000 
  86              	.LVL9:
  87              	.LBE47:
  88              	.LBE46:
  89              	.LBB48:
  90              	.LBB49:
  16:src/../h/../h/../h/sem.hpp **** 
  91              		.loc 2 16 42
  92 0070 23202501 		sw	s2,0(a0)
  93              	.LVL10:
  94              	.LBB50:
  95              	.LBB51:
  96              		.loc 3 46 29
  97 0074 23340500 		sd	zero,8(a0)
  98 0078 23380500 		sd	zero,16(a0)
  99              	.LVL11:
 100              	.LBE51:
 101              	.LBE50:
  16:src/../h/../h/../h/sem.hpp **** 
 102              		.loc 2 16 42
 103 007c 230C0500 		sb	zero,24(a0)
 104              	.LVL12:
 105              	.LBE49:
 106              	.LBE48:
 107              		.loc 1 11 20
 108 0080 23BCA400 		sd	a0,24(s1)
  12:src/kBuffer.cpp ****     mutexHead = new kSemaphore(1);
 109              		.loc 1 12 5 is_stmt 1
 110              	.LVL13:
 111              	.LBB52:
 112              	.LBB53:
 113              		.loc 2 34 9
 114              		.loc 2 34 34 is_stmt 0
 115 0084 13050002 		li	a0,32
 116 0088 97000000 		call	_ZN9Allocator7_mallocEm@plt
 116      E7800000 
 117              	.LVL14:
 118              	.LBE53:
 119              	.LBE52:
 120              	.LBB54:
 121              	.LBB55:
  16:src/../h/../h/../h/sem.hpp **** 
 122              		.loc 2 16 42
 123 0090 13091000 		li	s2,1
 124 0094 23202501 		sw	s2,0(a0)
 125              	.LVL15:
 126              	.LBB56:
 127              	.LBB57:
 128              		.loc 3 46 29
GAS LISTING /tmp/ccPAOpUK.s 			page 5


 129 0098 23340500 		sd	zero,8(a0)
 130 009c 23380500 		sd	zero,16(a0)
 131              	.LVL16:
 132              	.LBE57:
 133              	.LBE56:
  16:src/../h/../h/../h/sem.hpp **** 
 134              		.loc 2 16 42
 135 00a0 230C0500 		sb	zero,24(a0)
 136              	.LVL17:
 137              	.LBE55:
 138              	.LBE54:
 139              		.loc 1 12 15
 140 00a4 23B4A402 		sd	a0,40(s1)
  13:src/kBuffer.cpp ****     mutexTail = new kSemaphore(1);
 141              		.loc 1 13 5 is_stmt 1
 142              	.LVL18:
 143              	.LBB58:
 144              	.LBB59:
 145              		.loc 2 34 9
 146              		.loc 2 34 34 is_stmt 0
 147 00a8 13050002 		li	a0,32
 148 00ac 97000000 		call	_ZN9Allocator7_mallocEm@plt
 148      E7800000 
 149              	.LVL19:
 150              	.LBE59:
 151              	.LBE58:
 152              	.LBB60:
 153              	.LBB61:
  16:src/../h/../h/../h/sem.hpp **** 
 154              		.loc 2 16 42
 155 00b4 23202501 		sw	s2,0(a0)
 156              	.LVL20:
 157              	.LBB62:
 158              	.LBB63:
 159              		.loc 3 46 29
 160 00b8 23340500 		sd	zero,8(a0)
 161 00bc 23380500 		sd	zero,16(a0)
 162              	.LVL21:
 163              	.LBE63:
 164              	.LBE62:
  16:src/../h/../h/../h/sem.hpp **** 
 165              		.loc 2 16 42
 166 00c0 230C0500 		sb	zero,24(a0)
 167              	.LVL22:
 168              	.LBE61:
 169              	.LBE60:
 170              		.loc 1 13 15
 171 00c4 23B8A402 		sd	a0,48(s1)
 172              	.LBE39:
  14:src/kBuffer.cpp **** }
 173              		.loc 1 14 1
 174 00c8 83308101 		ld	ra,24(sp)
 175              		.cfi_restore 1
 176 00cc 03340101 		ld	s0,16(sp)
 177              		.cfi_restore 8
 178              		.cfi_def_cfa 2, 32
 179 00d0 83348100 		ld	s1,8(sp)
GAS LISTING /tmp/ccPAOpUK.s 			page 6


 180              		.cfi_restore 9
 181              	.LVL23:
 182 00d4 03390100 		ld	s2,0(sp)
 183              		.cfi_restore 18
 184 00d8 13010102 		addi	sp,sp,32
 185              		.cfi_def_cfa_offset 0
 186 00dc 67800000 		jr	ra
 187              		.cfi_endproc
 188              	.LFE58:
 190              		.globl	_ZN7kBufferC1Ei
 191              		.set	_ZN7kBufferC1Ei,_ZN7kBufferC2Ei
 192              		.align	2
 193              		.globl	_ZN7kBufferD2Ev
 195              	_ZN7kBufferD2Ev:
 196              	.LFB61:
  15:src/kBuffer.cpp **** 
  16:src/kBuffer.cpp **** kBuffer::~kBuffer() {
 197              		.loc 1 16 1 is_stmt 1
 198              		.cfi_startproc
 199              		.cfi_personality 0x9b,DW.ref.__gxx_personality_v0
 200              		.cfi_lsda 0x1b,.LLSDA61
 201              	.LVL24:
 202 00e0 130101FE 		addi	sp,sp,-32
 203              		.cfi_def_cfa_offset 32
 204 00e4 233C1100 		sd	ra,24(sp)
 205 00e8 23388100 		sd	s0,16(sp)
 206 00ec 23349100 		sd	s1,8(sp)
 207              		.cfi_offset 1, -8
 208              		.cfi_offset 8, -16
 209              		.cfi_offset 9, -24
 210 00f0 13040102 		addi	s0,sp,32
 211              		.cfi_def_cfa 8, 0
 212 00f4 93040500 		mv	s1,a0
 213              	.LBB64:
  17:src/kBuffer.cpp ****     Allocator::_mem_free(buffer);
 214              		.loc 1 17 5
 215              		.loc 1 17 25 is_stmt 0
 216 00f8 03358500 		ld	a0,8(a0)
 217              	.LVL25:
 218 00fc 97000000 		call	_ZN9Allocator9_mem_freeEPv@plt
 218      E7800000 
 219              	.LVL26:
  18:src/kBuffer.cpp ****     itemAvailable->closeSem();
 220              		.loc 1 18 5 is_stmt 1
 221              		.loc 1 18 28 is_stmt 0
 222 0104 03B50402 		ld	a0,32(s1)
 223 0108 97000000 		call	_ZN10kSemaphore8closeSemEv@plt
 223      E7800000 
 224              	.LVL27:
  19:src/kBuffer.cpp ****     spaceAvailable->closeSem();
 225              		.loc 1 19 5 is_stmt 1
 226              		.loc 1 19 29 is_stmt 0
 227 0110 03B58401 		ld	a0,24(s1)
 228 0114 97000000 		call	_ZN10kSemaphore8closeSemEv@plt
 228      E7800000 
 229              	.LVL28:
  20:src/kBuffer.cpp ****     mutexTail->closeSem();
GAS LISTING /tmp/ccPAOpUK.s 			page 7


 230              		.loc 1 20 5 is_stmt 1
 231              		.loc 1 20 24 is_stmt 0
 232 011c 03B50403 		ld	a0,48(s1)
 233 0120 97000000 		call	_ZN10kSemaphore8closeSemEv@plt
 233      E7800000 
 234              	.LVL29:
  21:src/kBuffer.cpp ****     mutexHead->closeSem();
 235              		.loc 1 21 5 is_stmt 1
 236              		.loc 1 21 24 is_stmt 0
 237 0128 03B58402 		ld	a0,40(s1)
 238 012c 97000000 		call	_ZN10kSemaphore8closeSemEv@plt
 238      E7800000 
 239              	.LVL30:
 240              	.LBE64:
  22:src/kBuffer.cpp **** }
 241              		.loc 1 22 1
 242 0134 83308101 		ld	ra,24(sp)
 243              		.cfi_restore 1
 244 0138 03340101 		ld	s0,16(sp)
 245              		.cfi_restore 8
 246              		.cfi_def_cfa 2, 32
 247 013c 83348100 		ld	s1,8(sp)
 248              		.cfi_restore 9
 249              	.LVL31:
 250 0140 13010102 		addi	sp,sp,32
 251              		.cfi_def_cfa_offset 0
 252 0144 67800000 		jr	ra
 253              		.cfi_endproc
 254              	.LFE61:
 255              		.globl	__gxx_personality_v0
 256              		.section	.gcc_except_table,"a",@progbits
 257              	.LLSDA61:
 258 0000 FF       		.byte	0xff
 259 0001 FF       		.byte	0xff
 260 0002 03       		.byte	0x3
 261 0003 00       		.byte	0
 262              		.text
 264              		.globl	_ZN7kBufferD1Ev
 265              		.set	_ZN7kBufferD1Ev,_ZN7kBufferD2Ev
 266              		.align	2
 267              		.globl	_ZN7kBuffer3putEc
 269              	_ZN7kBuffer3putEc:
 270              	.LFB63:
  23:src/kBuffer.cpp **** 
  24:src/kBuffer.cpp **** void kBuffer::put(char val) {
 271              		.loc 1 24 29 is_stmt 1
 272              		.cfi_startproc
 273              	.LVL32:
 274 0148 130101FE 		addi	sp,sp,-32
 275              		.cfi_def_cfa_offset 32
 276 014c 233C1100 		sd	ra,24(sp)
 277 0150 23388100 		sd	s0,16(sp)
 278 0154 23349100 		sd	s1,8(sp)
 279 0158 23302101 		sd	s2,0(sp)
 280              		.cfi_offset 1, -8
 281              		.cfi_offset 8, -16
 282              		.cfi_offset 9, -24
GAS LISTING /tmp/ccPAOpUK.s 			page 8


 283              		.cfi_offset 18, -32
 284 015c 13040102 		addi	s0,sp,32
 285              		.cfi_def_cfa 8, 0
 286 0160 93040500 		mv	s1,a0
 287 0164 13890500 		mv	s2,a1
  25:src/kBuffer.cpp ****     spaceAvailable->wait();
 288              		.loc 1 25 5
 289              		.loc 1 25 25 is_stmt 0
 290 0168 03358501 		ld	a0,24(a0)
 291              	.LVL33:
 292 016c 97000000 		call	_ZN10kSemaphore4waitEv@plt
 292      E7800000 
 293              	.LVL34:
  26:src/kBuffer.cpp **** 
  27:src/kBuffer.cpp ****     mutexTail->wait();
 294              		.loc 1 27 5 is_stmt 1
 295              		.loc 1 27 20 is_stmt 0
 296 0174 03B50403 		ld	a0,48(s1)
 297 0178 97000000 		call	_ZN10kSemaphore4waitEv@plt
 297      E7800000 
 298              	.LVL35:
  28:src/kBuffer.cpp **** 
  29:src/kBuffer.cpp ****     buffer[tail] = val;
 299              		.loc 1 29 5 is_stmt 1
 300 0180 83B78400 		ld	a5,8(s1)
 301              		.loc 1 29 12 is_stmt 0
 302 0184 03A74401 		lw	a4,20(s1)
 303              		.loc 1 29 16
 304 0188 B387E700 		add	a5,a5,a4
 305              		.loc 1 29 18
 306 018c 23802701 		sb	s2,0(a5)
  30:src/kBuffer.cpp ****     tail = (tail + 1) % cap;
 307              		.loc 1 30 5 is_stmt 1
 308              		.loc 1 30 13 is_stmt 0
 309 0190 83A74401 		lw	a5,20(s1)
 310              		.loc 1 30 18
 311 0194 9B871700 		addiw	a5,a5,1
 312              		.loc 1 30 25
 313 0198 03A70400 		lw	a4,0(s1)
 314              		.loc 1 30 23
 315 019c BBE7E702 		remw	a5,a5,a4
 316              		.loc 1 30 10
 317 01a0 23AAF400 		sw	a5,20(s1)
  31:src/kBuffer.cpp **** 
  32:src/kBuffer.cpp ****     mutexTail->signal();
 318              		.loc 1 32 5 is_stmt 1
 319              		.loc 1 32 22 is_stmt 0
 320 01a4 03B50403 		ld	a0,48(s1)
 321 01a8 97000000 		call	_ZN10kSemaphore6signalEv@plt
 321      E7800000 
 322              	.LVL36:
  33:src/kBuffer.cpp **** 
  34:src/kBuffer.cpp ****     itemAvailable->signal();
 323              		.loc 1 34 5 is_stmt 1
 324              		.loc 1 34 26 is_stmt 0
 325 01b0 03B50402 		ld	a0,32(s1)
 326 01b4 97000000 		call	_ZN10kSemaphore6signalEv@plt
GAS LISTING /tmp/ccPAOpUK.s 			page 9


 326      E7800000 
 327              	.LVL37:
  35:src/kBuffer.cpp **** }
 328              		.loc 1 35 1
 329 01bc 83308101 		ld	ra,24(sp)
 330              		.cfi_restore 1
 331 01c0 03340101 		ld	s0,16(sp)
 332              		.cfi_restore 8
 333              		.cfi_def_cfa 2, 32
 334 01c4 83348100 		ld	s1,8(sp)
 335              		.cfi_restore 9
 336              	.LVL38:
 337 01c8 03390100 		ld	s2,0(sp)
 338              		.cfi_restore 18
 339 01cc 13010102 		addi	sp,sp,32
 340              		.cfi_def_cfa_offset 0
 341 01d0 67800000 		jr	ra
 342              		.cfi_endproc
 343              	.LFE63:
 345              		.align	2
 346              		.globl	_ZN7kBuffer3getEv
 348              	_ZN7kBuffer3getEv:
 349              	.LFB64:
  36:src/kBuffer.cpp **** 
  37:src/kBuffer.cpp **** char kBuffer::get() {
 350              		.loc 1 37 21 is_stmt 1
 351              		.cfi_startproc
 352              	.LVL39:
 353 01d4 130101FE 		addi	sp,sp,-32
 354              		.cfi_def_cfa_offset 32
 355 01d8 233C1100 		sd	ra,24(sp)
 356 01dc 23388100 		sd	s0,16(sp)
 357 01e0 23349100 		sd	s1,8(sp)
 358 01e4 23302101 		sd	s2,0(sp)
 359              		.cfi_offset 1, -8
 360              		.cfi_offset 8, -16
 361              		.cfi_offset 9, -24
 362              		.cfi_offset 18, -32
 363 01e8 13040102 		addi	s0,sp,32
 364              		.cfi_def_cfa 8, 0
 365 01ec 93040500 		mv	s1,a0
  38:src/kBuffer.cpp ****     itemAvailable->wait();
 366              		.loc 1 38 5
 367              		.loc 1 38 24 is_stmt 0
 368 01f0 03350502 		ld	a0,32(a0)
 369              	.LVL40:
 370 01f4 97000000 		call	_ZN10kSemaphore4waitEv@plt
 370      E7800000 
 371              	.LVL41:
  39:src/kBuffer.cpp **** 
  40:src/kBuffer.cpp ****     mutexHead->wait();
 372              		.loc 1 40 5 is_stmt 1
 373              		.loc 1 40 20 is_stmt 0
 374 01fc 03B58402 		ld	a0,40(s1)
 375 0200 97000000 		call	_ZN10kSemaphore4waitEv@plt
 375      E7800000 
 376              	.LVL42:
GAS LISTING /tmp/ccPAOpUK.s 			page 10


  41:src/kBuffer.cpp **** 
  42:src/kBuffer.cpp ****     char ret = buffer[head];
 377              		.loc 1 42 5 is_stmt 1
 378              		.loc 1 42 16 is_stmt 0
 379 0208 03B78400 		ld	a4,8(s1)
 380              		.loc 1 42 23
 381 020c 83A70401 		lw	a5,16(s1)
 382              		.loc 1 42 27
 383 0210 3307F700 		add	a4,a4,a5
 384              		.loc 1 42 10
 385 0214 03490700 		lbu	s2,0(a4)
 386              	.LVL43:
  43:src/kBuffer.cpp ****     head = (head + 1) % cap;
 387              		.loc 1 43 5 is_stmt 1
 388              		.loc 1 43 18 is_stmt 0
 389 0218 9B871700 		addiw	a5,a5,1
 390              		.loc 1 43 25
 391 021c 03A70400 		lw	a4,0(s1)
 392              		.loc 1 43 23
 393 0220 BBE7E702 		remw	a5,a5,a4
 394              		.loc 1 43 10
 395 0224 23A8F400 		sw	a5,16(s1)
  44:src/kBuffer.cpp **** 
  45:src/kBuffer.cpp ****     mutexHead->signal();
 396              		.loc 1 45 5 is_stmt 1
 397              		.loc 1 45 22 is_stmt 0
 398 0228 03B58402 		ld	a0,40(s1)
 399 022c 97000000 		call	_ZN10kSemaphore6signalEv@plt
 399      E7800000 
 400              	.LVL44:
  46:src/kBuffer.cpp **** 
  47:src/kBuffer.cpp ****     spaceAvailable->signal();
 401              		.loc 1 47 5 is_stmt 1
 402              		.loc 1 47 27 is_stmt 0
 403 0234 03B58401 		ld	a0,24(s1)
 404 0238 97000000 		call	_ZN10kSemaphore6signalEv@plt
 404      E7800000 
 405              	.LVL45:
  48:src/kBuffer.cpp ****     return ret;
 406              		.loc 1 48 5 is_stmt 1
  49:src/kBuffer.cpp **** }
 407              		.loc 1 49 1 is_stmt 0
 408 0240 13050900 		mv	a0,s2
 409 0244 83308101 		ld	ra,24(sp)
 410              		.cfi_restore 1
 411 0248 03340101 		ld	s0,16(sp)
 412              		.cfi_restore 8
 413              		.cfi_def_cfa 2, 32
 414 024c 83348100 		ld	s1,8(sp)
 415              		.cfi_restore 9
 416              	.LVL46:
 417 0250 03390100 		ld	s2,0(sp)
 418              		.cfi_restore 18
 419              	.LVL47:
 420 0254 13010102 		addi	sp,sp,32
 421              		.cfi_def_cfa_offset 0
 422 0258 67800000 		jr	ra
GAS LISTING /tmp/ccPAOpUK.s 			page 11


 423              		.cfi_endproc
 424              	.LFE64:
 426              		.align	2
 427              		.globl	_ZN7kBuffer6getCntEv
 429              	_ZN7kBuffer6getCntEv:
 430              	.LFB65:
  50:src/kBuffer.cpp **** 
  51:src/kBuffer.cpp **** int kBuffer::getCnt() {
 431              		.loc 1 51 23 is_stmt 1
 432              		.cfi_startproc
 433              	.LVL48:
 434 025c 130101FE 		addi	sp,sp,-32
 435              		.cfi_def_cfa_offset 32
 436 0260 233C1100 		sd	ra,24(sp)
 437 0264 23388100 		sd	s0,16(sp)
 438 0268 23349100 		sd	s1,8(sp)
 439 026c 23302101 		sd	s2,0(sp)
 440              		.cfi_offset 1, -8
 441              		.cfi_offset 8, -16
 442              		.cfi_offset 9, -24
 443              		.cfi_offset 18, -32
 444 0270 13040102 		addi	s0,sp,32
 445              		.cfi_def_cfa 8, 0
 446 0274 93040500 		mv	s1,a0
  52:src/kBuffer.cpp ****     int ret;
 447              		.loc 1 52 5
  53:src/kBuffer.cpp **** 
  54:src/kBuffer.cpp ****     mutexHead->wait();
 448              		.loc 1 54 5
 449              		.loc 1 54 20 is_stmt 0
 450 0278 03358502 		ld	a0,40(a0)
 451              	.LVL49:
 452 027c 97000000 		call	_ZN10kSemaphore4waitEv@plt
 452      E7800000 
 453              	.LVL50:
  55:src/kBuffer.cpp **** 
  56:src/kBuffer.cpp ****     mutexTail->wait();
 454              		.loc 1 56 5 is_stmt 1
 455              		.loc 1 56 20 is_stmt 0
 456 0284 03B50403 		ld	a0,48(s1)
 457 0288 97000000 		call	_ZN10kSemaphore4waitEv@plt
 457      E7800000 
 458              	.LVL51:
  57:src/kBuffer.cpp **** 
  58:src/kBuffer.cpp ****     if (tail >= head) {
 459              		.loc 1 58 5 is_stmt 1
 460              		.loc 1 58 9 is_stmt 0
 461 0290 83A74401 		lw	a5,20(s1)
 462              		.loc 1 58 17
 463 0294 03A90401 		lw	s2,16(s1)
 464              		.loc 1 58 5
 465 0298 63CE2703 		blt	a5,s2,.L10
  59:src/kBuffer.cpp ****         ret = tail - head;
 466              		.loc 1 59 9 is_stmt 1
 467              		.loc 1 59 13 is_stmt 0
 468 029c 3B892741 		subw	s2,a5,s2
 469              	.LVL52:
GAS LISTING /tmp/ccPAOpUK.s 			page 12


 470              	.L11:
  60:src/kBuffer.cpp ****     } else {
  61:src/kBuffer.cpp ****         ret = cap - head + tail;
  62:src/kBuffer.cpp ****     }
  63:src/kBuffer.cpp **** 
  64:src/kBuffer.cpp ****     mutexTail->signal();
 471              		.loc 1 64 5 is_stmt 1
 472              		.loc 1 64 22 is_stmt 0
 473 02a0 03B50403 		ld	a0,48(s1)
 474 02a4 97000000 		call	_ZN10kSemaphore6signalEv@plt
 474      E7800000 
 475              	.LVL53:
  65:src/kBuffer.cpp **** 
  66:src/kBuffer.cpp ****     mutexHead->signal();
 476              		.loc 1 66 5 is_stmt 1
 477              		.loc 1 66 22 is_stmt 0
 478 02ac 03B58402 		ld	a0,40(s1)
 479 02b0 97000000 		call	_ZN10kSemaphore6signalEv@plt
 479      E7800000 
 480              	.LVL54:
  67:src/kBuffer.cpp **** 
  68:src/kBuffer.cpp ****     return ret;
 481              		.loc 1 68 5 is_stmt 1
  69:src/kBuffer.cpp **** }...
 482              		.loc 1 69 1 is_stmt 0
 483 02b8 13050900 		mv	a0,s2
 484 02bc 83308101 		ld	ra,24(sp)
 485              		.cfi_remember_state
 486              		.cfi_restore 1
 487 02c0 03340101 		ld	s0,16(sp)
 488              		.cfi_restore 8
 489              		.cfi_def_cfa 2, 32
 490 02c4 83348100 		ld	s1,8(sp)
 491              		.cfi_restore 9
 492              	.LVL55:
 493 02c8 03390100 		ld	s2,0(sp)
 494              		.cfi_restore 18
 495              	.LVL56:
 496 02cc 13010102 		addi	sp,sp,32
 497              		.cfi_def_cfa_offset 0
 498 02d0 67800000 		jr	ra
 499              	.LVL57:
 500              	.L10:
 501              		.cfi_restore_state
  61:src/kBuffer.cpp ****         ret = cap - head + tail;
 502              		.loc 1 61 9 is_stmt 1
  61:src/kBuffer.cpp ****         ret = cap - head + tail;
 503              		.loc 1 61 15 is_stmt 0
 504 02d4 03A70400 		lw	a4,0(s1)
  61:src/kBuffer.cpp ****         ret = cap - head + tail;
 505              		.loc 1 61 19
 506 02d8 3B092741 		subw	s2,a4,s2
  61:src/kBuffer.cpp ****         ret = cap - head + tail;
 507              		.loc 1 61 13
 508 02dc 3B09F900 		addw	s2,s2,a5
 509 02e0 6FF01FFC 		j	.L11
 510              		.cfi_endproc
GAS LISTING /tmp/ccPAOpUK.s 			page 13


 511              	.LFE65:
 513              	.Letext0:
 514              		.file 4 "src/../h/../h/../lib/hw.h"
 515              		.file 5 "src/../h/../h/../h/../h/../h/Allocator.hpp"
 516              		.file 6 "src/../h/../h/tcb.hpp"
 517              		.file 7 "src/../h/../h/../h/tipovi.hpp"
 518              		.file 8 "src/../h/kBuffer.hpp"
 3925              		.align	3
 3928              	DW.ref.__gxx_personality_v0:
 3929 0000 00000000 		.dword	__gxx_personality_v0
 3929      00000000 
 3930              		.ident	"GCC: (Ubuntu 9.4.0-1ubuntu1~20.04) 9.4.0"
 3931              		.section	.note.GNU-stack,"",@progbits
GAS LISTING /tmp/ccPAOpUK.s 			page 14

