GAS LISTING /tmp/ccROf5CU.s 			page 1


   1              		.file	"kConsole.cpp"
   2              		.option pic
   3              		.option norelax
   4              		.text
   5              	.Ltext0:
   6              		.align	2
   7              		.globl	_ZN8kConsole4initEv
   9              	_ZN8kConsole4initEv:
  10              	.LFB57:
  11              		.file 1 "src/kConsole.cpp"
   1:src/kConsole.cpp **** #include "../h/kConsole.hpp"
   2:src/kConsole.cpp **** 
   3:src/kConsole.cpp **** kBuffer* kConsole::inputBuffer = nullptr;
   4:src/kConsole.cpp **** kBuffer* kConsole::outputBuffer = nullptr;
   5:src/kConsole.cpp **** 
   6:src/kConsole.cpp **** void kConsole::init() {
  12              		.loc 1 6 23
  13              		.cfi_startproc
  14              		.cfi_personality 0x9b,DW.ref.__gxx_personality_v0
  15              		.cfi_lsda 0x1b,.LLSDA57
  16 0000 130101FE 		addi	sp,sp,-32
  17              		.cfi_def_cfa_offset 32
  18 0004 233C1100 		sd	ra,24(sp)
  19 0008 23388100 		sd	s0,16(sp)
  20 000c 23349100 		sd	s1,8(sp)
  21 0010 23302101 		sd	s2,0(sp)
  22              		.cfi_offset 1, -8
  23              		.cfi_offset 8, -16
  24              		.cfi_offset 9, -24
  25              		.cfi_offset 18, -32
  26 0014 13040102 		addi	s0,sp,32
  27              		.cfi_def_cfa 8, 0
   7:src/kConsole.cpp ****     inputBuffer = new kBuffer(275);
  28              		.loc 1 7 5
  29              	.LVL0:
  30              	.LBB14:
  31              	.LBB15:
  32              		.file 2 "src/../h/../h/kBuffer.hpp"
   1:src/../h/../h/kBuffer.hpp **** //
   2:src/../h/../h/kBuffer.hpp **** // Created by os on 5/22/24.
   3:src/../h/../h/kBuffer.hpp **** //
   4:src/../h/../h/kBuffer.hpp **** 
   5:src/../h/../h/kBuffer.hpp **** #ifndef PROJECT_BASE_KBUFFER_HPP
   6:src/../h/../h/kBuffer.hpp **** #define PROJECT_BASE_KBUFFER_HPP
   7:src/../h/../h/kBuffer.hpp **** 
   8:src/../h/../h/kBuffer.hpp **** // koriscen buffer iz testova
   9:src/../h/../h/kBuffer.hpp **** 
  10:src/../h/../h/kBuffer.hpp **** #include "../h/syscall_c.h"
  11:src/../h/../h/kBuffer.hpp **** #include "../h/sem.hpp"
  12:src/../h/../h/kBuffer.hpp **** #include "../h/Allocator.hpp"
  13:src/../h/../h/kBuffer.hpp **** 
  14:src/../h/../h/kBuffer.hpp **** class kBuffer {
  15:src/../h/../h/kBuffer.hpp **** private:
  16:src/../h/../h/kBuffer.hpp ****     int cap;
  17:src/../h/../h/kBuffer.hpp ****     char *buffer;
  18:src/../h/../h/kBuffer.hpp ****     int head, tail;
  19:src/../h/../h/kBuffer.hpp **** 
GAS LISTING /tmp/ccROf5CU.s 			page 2


  20:src/../h/../h/kBuffer.hpp ****     sem_t spaceAvailable;
  21:src/../h/../h/kBuffer.hpp ****     sem_t itemAvailable;
  22:src/../h/../h/kBuffer.hpp ****     sem_t mutexHead;
  23:src/../h/../h/kBuffer.hpp ****     sem_t mutexTail;
  24:src/../h/../h/kBuffer.hpp **** 
  25:src/../h/../h/kBuffer.hpp **** public:
  26:src/../h/../h/kBuffer.hpp **** 
  27:src/../h/../h/kBuffer.hpp ****     void* operator new(size_t size) {
  28:src/../h/../h/kBuffer.hpp ****         return Allocator::_malloc(size);
  33              		.loc 2 28 9
  34              		.loc 2 28 34 is_stmt 0
  35 0018 13058003 		li	a0,56
  36              	.LEHB0:
  37 001c 97000000 		call	_ZN9Allocator7_mallocEm@plt
  37      E7800000 
  38              	.LVL1:
  39              	.LEHE0:
  40 0024 93040500 		mv	s1,a0
  41              	.LVL2:
  42              	.LBE15:
  43              	.LBE14:
  44              		.loc 1 7 34
  45 0028 93053011 		li	a1,275
  46              	.LEHB1:
  47 002c 97000000 		call	_ZN7kBufferC1Ei@plt
  47      E7800000 
  48              	.LVL3:
  49              	.LEHE1:
  50              		.loc 1 7 17 discriminator 2
  51 0034 97070000 		sd	s1,.LANCHOR0,a5
  51      23B09700 
   8:src/kConsole.cpp ****     outputBuffer = new kBuffer(275);
  52              		.loc 1 8 5 is_stmt 1 discriminator 2
  53              	.LVL4:
  54              	.LBB16:
  55              	.LBB17:
  56              		.loc 2 28 9 discriminator 2
  57              		.loc 2 28 34 is_stmt 0 discriminator 2
  58 003c 13058003 		li	a0,56
  59              	.LEHB2:
  60 0040 97000000 		call	_ZN9Allocator7_mallocEm@plt
  60      E7800000 
  61              	.LVL5:
  62              	.LEHE2:
  63 0048 93040500 		mv	s1,a0
  64              	.LVL6:
  65              	.LBE17:
  66              	.LBE16:
  67              		.loc 1 8 35 discriminator 2
  68 004c 93053011 		li	a1,275
  69              	.LEHB3:
  70 0050 97000000 		call	_ZN7kBufferC1Ei@plt
  70      E7800000 
  71              	.LVL7:
  72              	.LEHE3:
  73              		.loc 1 8 18 discriminator 2
  74 0058 97070000 		sd	s1,.LANCHOR0+8,a5
GAS LISTING /tmp/ccROf5CU.s 			page 3


  74      23B09700 
   9:src/kConsole.cpp **** }
  75              		.loc 1 9 1 discriminator 2
  76 0060 83308101 		ld	ra,24(sp)
  77              		.cfi_remember_state
  78              		.cfi_restore 1
  79 0064 03340101 		ld	s0,16(sp)
  80              		.cfi_restore 8
  81              		.cfi_def_cfa 2, 32
  82 0068 83348100 		ld	s1,8(sp)
  83              		.cfi_restore 9
  84 006c 03390100 		ld	s2,0(sp)
  85              		.cfi_restore 18
  86 0070 13010102 		addi	sp,sp,32
  87              		.cfi_def_cfa_offset 0
  88 0074 67800000 		jr	ra
  89              	.L4:
  90              		.cfi_restore_state
  91 0078 13090500 		mv	s2,a0
  92              	.LVL8:
  93              	.LBB18:
  94              	.LBB19:
  29:src/../h/../h/kBuffer.hpp ****     }
  30:src/../h/../h/kBuffer.hpp **** 
  31:src/../h/../h/kBuffer.hpp ****     void operator delete(void* ptr) {
  32:src/../h/../h/kBuffer.hpp ****         Allocator::_mem_free(ptr);
  95              		.loc 2 32 9 is_stmt 1
  96              		.loc 2 32 29 is_stmt 0
  97 007c 13850400 		mv	a0,s1
  98 0080 97000000 		call	_ZN9Allocator9_mem_freeEPv@plt
  98      E7800000 
  99              	.LVL9:
 100 0088 13050900 		mv	a0,s2
 101              	.LEHB4:
 102 008c 97000000 		call	_Unwind_Resume@plt
 102      E7800000 
 103              	.LVL10:
 104              	.LEHE4:
 105              	.L5:
 106 0094 13090500 		mv	s2,a0
 107              	.LVL11:
 108              	.LBE19:
 109              	.LBE18:
 110              	.LBB20:
 111              	.LBB21:
 112              		.loc 2 32 9 is_stmt 1
 113              		.loc 2 32 29 is_stmt 0
 114 0098 13850400 		mv	a0,s1
 115 009c 97000000 		call	_ZN9Allocator9_mem_freeEPv@plt
 115      E7800000 
 116              	.LVL12:
 117 00a4 13050900 		mv	a0,s2
 118              	.LEHB5:
 119 00a8 97000000 		call	_Unwind_Resume@plt
 119      E7800000 
 120              	.LVL13:
 121              	.LEHE5:
GAS LISTING /tmp/ccROf5CU.s 			page 4


 122              	.LBE21:
 123              	.LBE20:
 124              		.cfi_endproc
 125              	.LFE57:
 126              		.globl	__gxx_personality_v0
 127              		.section	.gcc_except_table,"a",@progbits
 128              	.LLSDA57:
 129 0000 FF       		.byte	0xff
 130 0001 FF       		.byte	0xff
 131 0002 03       		.byte	0x3
 132 0003 4E       		.byte	0x4e
 133 0004 00000000 		.4byte	.LEHB0-.LFB57
 134 0008 00000000 		.4byte	.LEHE0-.LEHB0
 135 000c 00000000 		.4byte	0
 136 0010 00       		.byte	0
 137 0011 00000000 		.4byte	.LEHB1-.LFB57
 138 0015 00000000 		.4byte	.LEHE1-.LEHB1
 139 0019 00000000 		.4byte	.L4-.LFB57
 140 001d 00       		.byte	0
 141 001e 00000000 		.4byte	.LEHB2-.LFB57
 142 0022 00000000 		.4byte	.LEHE2-.LEHB2
 143 0026 00000000 		.4byte	0
 144 002a 00       		.byte	0
 145 002b 00000000 		.4byte	.LEHB3-.LFB57
 146 002f 00000000 		.4byte	.LEHE3-.LEHB3
 147 0033 00000000 		.4byte	.L5-.LFB57
 148 0037 00       		.byte	0
 149 0038 00000000 		.4byte	.LEHB4-.LFB57
 150 003c 00000000 		.4byte	.LEHE4-.LEHB4
 151 0040 00000000 		.4byte	0
 152 0044 00       		.byte	0
 153 0045 00000000 		.4byte	.LEHB5-.LFB57
 154 0049 00000000 		.4byte	.LEHE5-.LEHB5
 155 004d 00000000 		.4byte	0
 156 0051 00       		.byte	0
 157              		.text
 159              		.align	2
 160              		.globl	_ZN8kConsole5kgetcEv
 162              	_ZN8kConsole5kgetcEv:
 163              	.LFB58:
  10:src/kConsole.cpp **** 
  11:src/kConsole.cpp **** char kConsole::kgetc() {
 164              		.loc 1 11 24 is_stmt 1
 165              		.cfi_startproc
 166 00b0 130101FF 		addi	sp,sp,-16
 167              		.cfi_def_cfa_offset 16
 168 00b4 23341100 		sd	ra,8(sp)
 169 00b8 23308100 		sd	s0,0(sp)
 170              		.cfi_offset 1, -8
 171              		.cfi_offset 8, -16
 172 00bc 13040101 		addi	s0,sp,16
 173              		.cfi_def_cfa 8, 0
  12:src/kConsole.cpp ****     return inputBuffer->get();
 174              		.loc 1 12 5
 175              		.loc 1 12 28 is_stmt 0
 176 00c0 17050000 		ld	a0,.LANCHOR0
 176      03350500 
GAS LISTING /tmp/ccROf5CU.s 			page 5


 177 00c8 97000000 		call	_ZN7kBuffer3getEv@plt
 177      E7800000 
 178              	.LVL14:
  13:src/kConsole.cpp **** }
 179              		.loc 1 13 1
 180 00d0 83308100 		ld	ra,8(sp)
 181              		.cfi_restore 1
 182 00d4 03340100 		ld	s0,0(sp)
 183              		.cfi_restore 8
 184              		.cfi_def_cfa 2, 16
 185 00d8 13010101 		addi	sp,sp,16
 186              		.cfi_def_cfa_offset 0
 187 00dc 67800000 		jr	ra
 188              		.cfi_endproc
 189              	.LFE58:
 191              		.align	2
 192              		.globl	_ZN8kConsole5kputcEc
 194              	_ZN8kConsole5kputcEc:
 195              	.LFB59:
  14:src/kConsole.cpp **** 
  15:src/kConsole.cpp **** void kConsole::kputc(char c) {
 196              		.loc 1 15 30 is_stmt 1
 197              		.cfi_startproc
 198              	.LVL15:
 199 00e0 130101FF 		addi	sp,sp,-16
 200              		.cfi_def_cfa_offset 16
 201 00e4 23341100 		sd	ra,8(sp)
 202 00e8 23308100 		sd	s0,0(sp)
 203              		.cfi_offset 1, -8
 204              		.cfi_offset 8, -16
 205 00ec 13040101 		addi	s0,sp,16
 206              		.cfi_def_cfa 8, 0
 207 00f0 93050500 		mv	a1,a0
  16:src/kConsole.cpp ****     outputBuffer->put(c);
 208              		.loc 1 16 5
 209              		.loc 1 16 22 is_stmt 0
 210 00f4 17050000 		ld	a0,.LANCHOR0+8
 210      03350500 
 211              	.LVL16:
 212 00fc 97000000 		call	_ZN7kBuffer3putEc@plt
 212      E7800000 
 213              	.LVL17:
  17:src/kConsole.cpp **** }
 214              		.loc 1 17 1
 215 0104 83308100 		ld	ra,8(sp)
 216              		.cfi_restore 1
 217 0108 03340100 		ld	s0,0(sp)
 218              		.cfi_restore 8
 219              		.cfi_def_cfa 2, 16
 220 010c 13010101 		addi	sp,sp,16
 221              		.cfi_def_cfa_offset 0
 222 0110 67800000 		jr	ra
 223              		.cfi_endproc
 224              	.LFE59:
 226              		.align	2
 227              		.globl	_ZN8kConsole14putInputBufferEc
 229              	_ZN8kConsole14putInputBufferEc:
GAS LISTING /tmp/ccROf5CU.s 			page 6


 230              	.LFB60:
  18:src/kConsole.cpp **** 
  19:src/kConsole.cpp **** void kConsole::putInputBuffer(char c) {
 231              		.loc 1 19 39 is_stmt 1
 232              		.cfi_startproc
 233              	.LVL18:
 234 0114 130101FF 		addi	sp,sp,-16
 235              		.cfi_def_cfa_offset 16
 236 0118 23341100 		sd	ra,8(sp)
 237 011c 23308100 		sd	s0,0(sp)
 238              		.cfi_offset 1, -8
 239              		.cfi_offset 8, -16
 240 0120 13040101 		addi	s0,sp,16
 241              		.cfi_def_cfa 8, 0
 242 0124 93050500 		mv	a1,a0
  20:src/kConsole.cpp ****     inputBuffer->put(c);
 243              		.loc 1 20 5
 244              		.loc 1 20 21 is_stmt 0
 245 0128 17050000 		ld	a0,.LANCHOR0
 245      03350500 
 246              	.LVL19:
 247 0130 97000000 		call	_ZN7kBuffer3putEc@plt
 247      E7800000 
 248              	.LVL20:
  21:src/kConsole.cpp **** }
 249              		.loc 1 21 1
 250 0138 83308100 		ld	ra,8(sp)
 251              		.cfi_restore 1
 252 013c 03340100 		ld	s0,0(sp)
 253              		.cfi_restore 8
 254              		.cfi_def_cfa 2, 16
 255 0140 13010101 		addi	sp,sp,16
 256              		.cfi_def_cfa_offset 0
 257 0144 67800000 		jr	ra
 258              		.cfi_endproc
 259              	.LFE60:
 261              		.align	2
 262              		.globl	_ZN8kConsole15putOutputBufferEv
 264              	_ZN8kConsole15putOutputBufferEv:
 265              	.LFB61:
  22:src/kConsole.cpp **** 
  23:src/kConsole.cpp **** char kConsole::putOutputBuffer() {
 266              		.loc 1 23 34 is_stmt 1
 267              		.cfi_startproc
 268 0148 130101FF 		addi	sp,sp,-16
 269              		.cfi_def_cfa_offset 16
 270 014c 23341100 		sd	ra,8(sp)
 271 0150 23308100 		sd	s0,0(sp)
 272              		.cfi_offset 1, -8
 273              		.cfi_offset 8, -16
 274 0154 13040101 		addi	s0,sp,16
 275              		.cfi_def_cfa 8, 0
  24:src/kConsole.cpp ****     return outputBuffer->get();
 276              		.loc 1 24 5
 277              		.loc 1 24 29 is_stmt 0
 278 0158 17050000 		ld	a0,.LANCHOR0+8
 278      03350500 
GAS LISTING /tmp/ccROf5CU.s 			page 7


 279 0160 97000000 		call	_ZN7kBuffer3getEv@plt
 279      E7800000 
 280              	.LVL21:
  25:src/kConsole.cpp **** }
 281              		.loc 1 25 1
 282 0168 83308100 		ld	ra,8(sp)
 283              		.cfi_restore 1
 284 016c 03340100 		ld	s0,0(sp)
 285              		.cfi_restore 8
 286              		.cfi_def_cfa 2, 16
 287 0170 13010101 		addi	sp,sp,16
 288              		.cfi_def_cfa_offset 0
 289 0174 67800000 		jr	ra
 290              		.cfi_endproc
 291              	.LFE61:
 293              		.align	2
 294              		.globl	_ZN8kConsole12getInputSizeEv
 296              	_ZN8kConsole12getInputSizeEv:
 297              	.LFB62:
  26:src/kConsole.cpp **** 
  27:src/kConsole.cpp **** int kConsole::getInputSize() {
 298              		.loc 1 27 30 is_stmt 1
 299              		.cfi_startproc
 300 0178 130101FF 		addi	sp,sp,-16
 301              		.cfi_def_cfa_offset 16
 302 017c 23341100 		sd	ra,8(sp)
 303 0180 23308100 		sd	s0,0(sp)
 304              		.cfi_offset 1, -8
 305              		.cfi_offset 8, -16
 306 0184 13040101 		addi	s0,sp,16
 307              		.cfi_def_cfa 8, 0
  28:src/kConsole.cpp ****     return inputBuffer->getCnt();
 308              		.loc 1 28 5
 309              		.loc 1 28 31 is_stmt 0
 310 0188 17050000 		ld	a0,.LANCHOR0
 310      03350500 
 311 0190 97000000 		call	_ZN7kBuffer6getCntEv@plt
 311      E7800000 
 312              	.LVL22:
  29:src/kConsole.cpp **** }
 313              		.loc 1 29 1
 314 0198 83308100 		ld	ra,8(sp)
 315              		.cfi_restore 1
 316 019c 03340100 		ld	s0,0(sp)
 317              		.cfi_restore 8
 318              		.cfi_def_cfa 2, 16
 319 01a0 13010101 		addi	sp,sp,16
 320              		.cfi_def_cfa_offset 0
 321 01a4 67800000 		jr	ra
 322              		.cfi_endproc
 323              	.LFE62:
 325              		.align	2
 326              		.globl	_ZN8kConsole13getOutputSizeEv
 328              	_ZN8kConsole13getOutputSizeEv:
 329              	.LFB63:
  30:src/kConsole.cpp **** 
  31:src/kConsole.cpp **** int kConsole::getOutputSize() {
GAS LISTING /tmp/ccROf5CU.s 			page 8


 330              		.loc 1 31 31 is_stmt 1
 331              		.cfi_startproc
 332 01a8 130101FF 		addi	sp,sp,-16
 333              		.cfi_def_cfa_offset 16
 334 01ac 23341100 		sd	ra,8(sp)
 335 01b0 23308100 		sd	s0,0(sp)
 336              		.cfi_offset 1, -8
 337              		.cfi_offset 8, -16
 338 01b4 13040101 		addi	s0,sp,16
 339              		.cfi_def_cfa 8, 0
  32:src/kConsole.cpp ****     return outputBuffer->getCnt();
 340              		.loc 1 32 5
 341              		.loc 1 32 32 is_stmt 0
 342 01b8 17050000 		ld	a0,.LANCHOR0+8
 342      03350500 
 343 01c0 97000000 		call	_ZN7kBuffer6getCntEv@plt
 343      E7800000 
 344              	.LVL23:
  33:src/kConsole.cpp **** }
 345              		.loc 1 33 1
 346 01c8 83308100 		ld	ra,8(sp)
 347              		.cfi_restore 1
 348 01cc 03340100 		ld	s0,0(sp)
 349              		.cfi_restore 8
 350              		.cfi_def_cfa 2, 16
 351 01d0 13010101 		addi	sp,sp,16
 352              		.cfi_def_cfa_offset 0
 353 01d4 67800000 		jr	ra
 354              		.cfi_endproc
 355              	.LFE63:
 357              		.align	2
 358              		.globl	_ZN8kConsole10endConsoleEv
 360              	_ZN8kConsole10endConsoleEv:
 361              	.LFB64:
  34:src/kConsole.cpp **** 
  35:src/kConsole.cpp **** void kConsole::endConsole() {
 362              		.loc 1 35 29 is_stmt 1
 363              		.cfi_startproc
 364 01d8 130101FE 		addi	sp,sp,-32
 365              		.cfi_def_cfa_offset 32
 366 01dc 233C1100 		sd	ra,24(sp)
 367 01e0 23388100 		sd	s0,16(sp)
 368 01e4 23349100 		sd	s1,8(sp)
 369              		.cfi_offset 1, -8
 370              		.cfi_offset 8, -16
 371              		.cfi_offset 9, -24
 372 01e8 13040102 		addi	s0,sp,32
 373              		.cfi_def_cfa 8, 0
  36:src/kConsole.cpp ****     delete inputBuffer;
 374              		.loc 1 36 5
 375              		.loc 1 36 12 is_stmt 0
 376 01ec 97040000 		ld	s1,.LANCHOR0
 376      83B40400 
 377              		.loc 1 36 23
 378 01f4 638E0400 		beqz	s1,.L21
 379              		.loc 1 36 12 discriminator 1
 380 01f8 13850400 		mv	a0,s1
GAS LISTING /tmp/ccROf5CU.s 			page 9


 381 01fc 97000000 		call	_ZN7kBufferD1Ev@plt
 381      E7800000 
 382              	.LVL24:
 383              	.LBB22:
 384              	.LBB23:
 385              		.loc 2 32 9 is_stmt 1 discriminator 1
 386              		.loc 2 32 29 is_stmt 0 discriminator 1
 387 0204 13850400 		mv	a0,s1
 388 0208 97000000 		call	_ZN9Allocator9_mem_freeEPv@plt
 388      E7800000 
 389              	.LVL25:
 390              	.L21:
 391              	.LBE23:
 392              	.LBE22:
  37:src/kConsole.cpp ****     delete outputBuffer;
 393              		.loc 1 37 5 is_stmt 1
 394              		.loc 1 37 12 is_stmt 0
 395 0210 97040000 		ld	s1,.LANCHOR0+8
 395      83B40400 
 396              		.loc 1 37 24
 397 0218 638E0400 		beqz	s1,.L20
 398              		.loc 1 37 12 discriminator 1
 399 021c 13850400 		mv	a0,s1
 400 0220 97000000 		call	_ZN7kBufferD1Ev@plt
 400      E7800000 
 401              	.LVL26:
 402              	.LBB24:
 403              	.LBB25:
 404              		.loc 2 32 9 is_stmt 1 discriminator 1
 405              		.loc 2 32 29 is_stmt 0 discriminator 1
 406 0228 13850400 		mv	a0,s1
 407 022c 97000000 		call	_ZN9Allocator9_mem_freeEPv@plt
 407      E7800000 
 408              	.LVL27:
 409              	.L20:
 410              	.LBE25:
 411              	.LBE24:
  38:src/kConsole.cpp **** }
 412              		.loc 1 38 1
 413 0234 83308101 		ld	ra,24(sp)
 414              		.cfi_restore 1
 415 0238 03340101 		ld	s0,16(sp)
 416              		.cfi_restore 8
 417              		.cfi_def_cfa 2, 32
 418 023c 83348100 		ld	s1,8(sp)
 419              		.cfi_restore 9
 420 0240 13010102 		addi	sp,sp,32
 421              		.cfi_def_cfa_offset 0
 422 0244 67800000 		jr	ra
 423              		.cfi_endproc
 424              	.LFE64:
 426              		.globl	_ZN8kConsole12outputBufferE
 427              		.globl	_ZN8kConsole11inputBufferE
 428              		.bss
 429              		.align	3
 430              		.set	.LANCHOR0,. + 0
 433              	_ZN8kConsole11inputBufferE:
GAS LISTING /tmp/ccROf5CU.s 			page 10


 434 0000 00000000 		.zero	8
 434      00000000 
 437              	_ZN8kConsole12outputBufferE:
 438 0008 00000000 		.zero	8
 438      00000000 
 439              		.text
 440              	.Letext0:
 441              		.file 3 "src/../h/../h/../h/../lib/hw.h"
 442              		.file 4 "src/../h/../h/../h/../h/../h/../h/Allocator.hpp"
 443              		.file 5 "src/../h/../h/../h/../h/../h/list.hpp"
 444              		.file 6 "src/../h/../h/../h/tcb.hpp"
 445              		.file 7 "src/../h/../h/../h/../h/tipovi.hpp"
 446              		.file 8 "src/../h/../h/../h/../h/sem.hpp"
 447              		.file 9 "src/../h/kConsole.hpp"
 3608              		.align	3
 3611              	DW.ref.__gxx_personality_v0:
 3612 0000 00000000 		.dword	__gxx_personality_v0
 3612      00000000 
 3613              		.ident	"GCC: (Ubuntu 9.4.0-1ubuntu1~20.04) 9.4.0"
 3614              		.section	.note.GNU-stack,"",@progbits
GAS LISTING /tmp/ccROf5CU.s 			page 11

