GAS LISTING /tmp/cctOiZNa.s 			page 1


   1              		.file	"main.cpp"
   2              		.option pic
   3              		.option norelax
   4              		.text
   5              	.Ltext0:
   6              		.align	2
   7              		.globl	_Z3wrpPv
   9              	_Z3wrpPv:
  10              	.LFB59:
  11              		.file 1 "src/main.cpp"
   1:src/main.cpp  **** #include "../h/tcb.hpp"
   2:src/main.cpp  **** #include "../h/print.hpp"
   3:src/main.cpp  **** #include "../h/riscv.hpp"
   4:src/main.cpp  **** #include "../h/syscall_c.h"
   5:src/main.cpp  **** #include "../h/sem.hpp"
   6:src/main.cpp  **** #include "../h/Allocator.hpp"
   7:src/main.cpp  **** #include "../h/syscall_cpp.hpp"
   8:src/main.cpp  **** 
   9:src/main.cpp  **** kSemaphore *s1;
  10:src/main.cpp  **** 
  11:src/main.cpp  **** extern void userMain();
  12:src/main.cpp  **** 
  13:src/main.cpp  **** void wrp(void*) {
  12              		.loc 1 13 17
  13              		.cfi_startproc
  14 0000 130101FF 		addi	sp,sp,-16
  15              		.cfi_def_cfa_offset 16
  16 0004 23341100 		sd	ra,8(sp)
  17 0008 23308100 		sd	s0,0(sp)
  18              		.cfi_offset 1, -8
  19              		.cfi_offset 8, -16
  20 000c 13040101 		addi	s0,sp,16
  21              		.cfi_def_cfa 8, 0
  14:src/main.cpp  ****     userMain();
  22              		.loc 1 14 5
  23              		.loc 1 14 13 is_stmt 0
  24 0010 97000000 		call	_Z8userMainv@plt
  24      E7800000 
  25              	.LVL0:
  15:src/main.cpp  **** }
  26              		.loc 1 15 1
  27 0018 83308100 		ld	ra,8(sp)
  28              		.cfi_restore 1
  29 001c 03340100 		ld	s0,0(sp)
  30              		.cfi_restore 8
  31              		.cfi_def_cfa 2, 16
  32 0020 13010101 		addi	sp,sp,16
  33              		.cfi_def_cfa_offset 0
  34 0024 67800000 		jr	ra
  35              		.cfi_endproc
  36              	.LFE59:
  38              		.section	.rodata.str1.8,"aMS",@progbits,1
  39              		.align	3
  40              	.LC0:
  41 0000 4B65726E 		.string	"Kernel finished\n"
  41      656C2066 
  41      696E6973 
GAS LISTING /tmp/cctOiZNa.s 			page 2


  41      6865640A 
  41      00
  42              		.text
  43              		.align	2
  44              		.globl	main
  46              	main:
  47              	.LFB60:
  16:src/main.cpp  **** 
  17:src/main.cpp  **** int main()  // MIJENJAO PRINT SVOJ, MIJENJA YILED DISPATCH U POZIVIMA, mijenajo da dodam enter, mij
  18:src/main.cpp  **** {
  48              		.loc 1 18 1 is_stmt 1
  49              		.cfi_startproc
  50 0028 130101FD 		addi	sp,sp,-48
  51              		.cfi_def_cfa_offset 48
  52 002c 23341102 		sd	ra,40(sp)
  53 0030 23308102 		sd	s0,32(sp)
  54 0034 233C9100 		sd	s1,24(sp)
  55              		.cfi_offset 1, -8
  56              		.cfi_offset 8, -16
  57              		.cfi_offset 9, -24
  58 0038 13040103 		addi	s0,sp,48
  59              		.cfi_def_cfa 8, 0
  19:src/main.cpp  ****     Riscv::w_stvec((uint64) &Riscv::supervisorTrap);
  60              		.loc 1 19 5
  61              		.loc 1 19 19 is_stmt 0
  62 003c 97070000 		la	a5,_ZN5Riscv14supervisorTrapEv
  62      83B70700 
  63              	.LVL1:
  64              	.LBB22:
  65              	.LBB23:
  66              		.file 2 "src/../h/../h/../h/../h/riscv.hpp"
   1:src/../h/../h/../h/../h/riscv.hpp **** //
   2:src/../h/../h/../h/../h/riscv.hpp **** // Created by os on 5/16/24.
   3:src/../h/../h/../h/../h/riscv.hpp **** //
   4:src/../h/../h/../h/../h/riscv.hpp **** 
   5:src/../h/../h/../h/../h/riscv.hpp **** #ifndef PROJECT_BASE_RISCV_HPP
   6:src/../h/../h/../h/../h/riscv.hpp **** #define PROJECT_BASE_RISCV_HPP
   7:src/../h/../h/../h/../h/riscv.hpp **** // preuzeta sa Teamsa
   8:src/../h/../h/../h/../h/riscv.hpp **** #include "../lib/hw.h"
   9:src/../h/../h/../h/../h/riscv.hpp **** #include "tipovi.hpp"
  10:src/../h/../h/../h/../h/riscv.hpp **** #include "Allocator.hpp"
  11:src/../h/../h/../h/../h/riscv.hpp **** #include "../h/print.hpp"
  12:src/../h/../h/../h/../h/riscv.hpp **** #include "../h/kConsole.hpp"
  13:src/../h/../h/../h/../h/riscv.hpp **** 
  14:src/../h/../h/../h/../h/riscv.hpp **** class Riscv
  15:src/../h/../h/../h/../h/riscv.hpp **** {
  16:src/../h/../h/../h/../h/riscv.hpp **** public:
  17:src/../h/../h/../h/../h/riscv.hpp ****     static void kernelEnd(void* arg);
  18:src/../h/../h/../h/../h/riscv.hpp **** 
  19:src/../h/../h/../h/../h/riscv.hpp ****     // pop sstatus.spp and sstatus.spie bits (has to be a non inline function)
  20:src/../h/../h/../h/../h/riscv.hpp ****     static void popSppSpie();
  21:src/../h/../h/../h/../h/riscv.hpp **** 
  22:src/../h/../h/../h/../h/riscv.hpp ****     // read register scause
  23:src/../h/../h/../h/../h/riscv.hpp ****     static uint64 r_scause();
  24:src/../h/../h/../h/../h/riscv.hpp **** 
  25:src/../h/../h/../h/../h/riscv.hpp ****     // write register scause
  26:src/../h/../h/../h/../h/riscv.hpp ****     static void w_scause(uint64 scause);
GAS LISTING /tmp/cctOiZNa.s 			page 3


  27:src/../h/../h/../h/../h/riscv.hpp **** 
  28:src/../h/../h/../h/../h/riscv.hpp ****     // read register sepc
  29:src/../h/../h/../h/../h/riscv.hpp ****     static uint64 r_sepc();
  30:src/../h/../h/../h/../h/riscv.hpp **** 
  31:src/../h/../h/../h/../h/riscv.hpp ****     // write register sepc
  32:src/../h/../h/../h/../h/riscv.hpp ****     static void w_sepc(uint64 sepc);
  33:src/../h/../h/../h/../h/riscv.hpp **** 
  34:src/../h/../h/../h/../h/riscv.hpp ****     // read register stvec
  35:src/../h/../h/../h/../h/riscv.hpp ****     static uint64 r_stvec();
  36:src/../h/../h/../h/../h/riscv.hpp **** 
  37:src/../h/../h/../h/../h/riscv.hpp ****     // write register stvec
  38:src/../h/../h/../h/../h/riscv.hpp ****     static void w_stvec(uint64 stvec);
  39:src/../h/../h/../h/../h/riscv.hpp **** 
  40:src/../h/../h/../h/../h/riscv.hpp ****     // read register stval
  41:src/../h/../h/../h/../h/riscv.hpp ****     static uint64 r_stval();
  42:src/../h/../h/../h/../h/riscv.hpp **** 
  43:src/../h/../h/../h/../h/riscv.hpp ****     // write register stval
  44:src/../h/../h/../h/../h/riscv.hpp ****     static void w_stval(uint64 stval);
  45:src/../h/../h/../h/../h/riscv.hpp **** 
  46:src/../h/../h/../h/../h/riscv.hpp ****     enum BitMaskSip
  47:src/../h/../h/../h/../h/riscv.hpp ****     {
  48:src/../h/../h/../h/../h/riscv.hpp ****         SIP_SSIP = (1 << 1),
  49:src/../h/../h/../h/../h/riscv.hpp ****         SIP_STIP = (1 << 5),
  50:src/../h/../h/../h/../h/riscv.hpp ****         SIP_SEIP = (1 << 9),
  51:src/../h/../h/../h/../h/riscv.hpp ****     };
  52:src/../h/../h/../h/../h/riscv.hpp **** 
  53:src/../h/../h/../h/../h/riscv.hpp ****     // mask set register sip
  54:src/../h/../h/../h/../h/riscv.hpp ****     static void ms_sip(uint64 mask);
  55:src/../h/../h/../h/../h/riscv.hpp **** 
  56:src/../h/../h/../h/../h/riscv.hpp ****     // mask clear register sip
  57:src/../h/../h/../h/../h/riscv.hpp ****     static void mc_sip(uint64 mask);
  58:src/../h/../h/../h/../h/riscv.hpp **** 
  59:src/../h/../h/../h/../h/riscv.hpp ****     // read register sip
  60:src/../h/../h/../h/../h/riscv.hpp ****     static uint64 r_sip();
  61:src/../h/../h/../h/../h/riscv.hpp **** 
  62:src/../h/../h/../h/../h/riscv.hpp ****     // write register sip
  63:src/../h/../h/../h/../h/riscv.hpp ****     static void w_sip(uint64 sip);
  64:src/../h/../h/../h/../h/riscv.hpp **** 
  65:src/../h/../h/../h/../h/riscv.hpp ****     enum BitMaskSstatus
  66:src/../h/../h/../h/../h/riscv.hpp ****     {
  67:src/../h/../h/../h/../h/riscv.hpp ****         SSTATUS_SIE = (1 << 1),
  68:src/../h/../h/../h/../h/riscv.hpp ****         SSTATUS_SPIE = (1 << 5),
  69:src/../h/../h/../h/../h/riscv.hpp ****         SSTATUS_SPP = (1 << 8),
  70:src/../h/../h/../h/../h/riscv.hpp ****     };
  71:src/../h/../h/../h/../h/riscv.hpp **** 
  72:src/../h/../h/../h/../h/riscv.hpp ****     static uint64 r_ra();
  73:src/../h/../h/../h/../h/riscv.hpp ****     // mask set register sstatus
  74:src/../h/../h/../h/../h/riscv.hpp ****     static void ms_sstatus(uint64 mask);
  75:src/../h/../h/../h/../h/riscv.hpp **** 
  76:src/../h/../h/../h/../h/riscv.hpp ****     // mask clear register sstatus
  77:src/../h/../h/../h/../h/riscv.hpp ****     static void mc_sstatus(uint64 mask);
  78:src/../h/../h/../h/../h/riscv.hpp **** 
  79:src/../h/../h/../h/../h/riscv.hpp ****     // read register sstatus
  80:src/../h/../h/../h/../h/riscv.hpp ****     static uint64 r_sstatus();
  81:src/../h/../h/../h/../h/riscv.hpp **** 
  82:src/../h/../h/../h/../h/riscv.hpp ****     // write register sstatus
  83:src/../h/../h/../h/../h/riscv.hpp ****     static void w_sstatus(uint64 sstatus);
GAS LISTING /tmp/cctOiZNa.s 			page 4


  84:src/../h/../h/../h/../h/riscv.hpp **** 
  85:src/../h/../h/../h/../h/riscv.hpp ****     // supervisor trap
  86:src/../h/../h/../h/../h/riscv.hpp ****     static void supervisorTrap();
  87:src/../h/../h/../h/../h/riscv.hpp **** 
  88:src/../h/../h/../h/../h/riscv.hpp **** private:
  89:src/../h/../h/../h/../h/riscv.hpp ****     // supervisor trap handler
  90:src/../h/../h/../h/../h/riscv.hpp ****     static void handleSupervisorTrap();
  91:src/../h/../h/../h/../h/riscv.hpp **** 
  92:src/../h/../h/../h/../h/riscv.hpp **** };
  93:src/../h/../h/../h/../h/riscv.hpp **** 
  94:src/../h/../h/../h/../h/riscv.hpp **** inline uint64 Riscv::r_scause()
  95:src/../h/../h/../h/../h/riscv.hpp **** {
  96:src/../h/../h/../h/../h/riscv.hpp ****     uint64 volatile scause;
  97:src/../h/../h/../h/../h/riscv.hpp ****     __asm__ volatile ("csrr %[scause], scause" : [scause] "=r"(scause));
  98:src/../h/../h/../h/../h/riscv.hpp ****     return scause;
  99:src/../h/../h/../h/../h/riscv.hpp **** }
 100:src/../h/../h/../h/../h/riscv.hpp **** 
 101:src/../h/../h/../h/../h/riscv.hpp **** inline void Riscv::w_scause(uint64 scause)
 102:src/../h/../h/../h/../h/riscv.hpp **** {
 103:src/../h/../h/../h/../h/riscv.hpp ****     __asm__ volatile ("csrw scause, %[scause]" : : [scause] "r"(scause));
 104:src/../h/../h/../h/../h/riscv.hpp **** }
 105:src/../h/../h/../h/../h/riscv.hpp **** 
 106:src/../h/../h/../h/../h/riscv.hpp **** inline uint64 Riscv::r_sepc()
 107:src/../h/../h/../h/../h/riscv.hpp **** {
 108:src/../h/../h/../h/../h/riscv.hpp ****     uint64 volatile sepc;
 109:src/../h/../h/../h/../h/riscv.hpp ****     __asm__ volatile ("csrr %[sepc], sepc" : [sepc] "=r"(sepc));
 110:src/../h/../h/../h/../h/riscv.hpp ****     return sepc;
 111:src/../h/../h/../h/../h/riscv.hpp **** }
 112:src/../h/../h/../h/../h/riscv.hpp **** 
 113:src/../h/../h/../h/../h/riscv.hpp **** inline void Riscv::w_sepc(uint64 sepc)
 114:src/../h/../h/../h/../h/riscv.hpp **** {
 115:src/../h/../h/../h/../h/riscv.hpp ****     __asm__ volatile ("csrw sepc, %[sepc]" : : [sepc] "r"(sepc));
 116:src/../h/../h/../h/../h/riscv.hpp **** }
 117:src/../h/../h/../h/../h/riscv.hpp **** 
 118:src/../h/../h/../h/../h/riscv.hpp **** inline uint64 Riscv::r_stvec()
 119:src/../h/../h/../h/../h/riscv.hpp **** {
 120:src/../h/../h/../h/../h/riscv.hpp ****     uint64 volatile stvec;
 121:src/../h/../h/../h/../h/riscv.hpp ****     __asm__ volatile ("csrr %[stvec], stvec" : [stvec] "=r"(stvec));
 122:src/../h/../h/../h/../h/riscv.hpp ****     return stvec;
 123:src/../h/../h/../h/../h/riscv.hpp **** }
 124:src/../h/../h/../h/../h/riscv.hpp **** 
 125:src/../h/../h/../h/../h/riscv.hpp **** inline void Riscv::w_stvec(uint64 stvec)
 126:src/../h/../h/../h/../h/riscv.hpp **** {
 127:src/../h/../h/../h/../h/riscv.hpp ****     __asm__ volatile ("csrw stvec, %[stvec]" : : [stvec] "r"(stvec));
  67              		.loc 2 127 5 is_stmt 1
  68              		.loc 2 127 69 is_stmt 0
  69              	#APP
  70              	# 127 "src/../h/../h/../h/../h/riscv.hpp" 1
 128              	}
  71              		csrw stvec, a5
  72              	# 0 "" 2
  73              	.LVL2:
  74              	#NO_APP
  75              	.LBE23:
  76              	.LBE22:
  20:src/main.cpp  **** 
  21:src/main.cpp  ****     Allocator::init();
GAS LISTING /tmp/cctOiZNa.s 			page 5


  77              		.loc 1 21 5 is_stmt 1
  78              		.loc 1 21 20 is_stmt 0
  79 0048 97000000 		call	_ZN9Allocator4initEv@plt
  79      E7800000 
  80              	.LVL3:
  22:src/main.cpp  ****     kConsole::init();
  81              		.loc 1 22 5 is_stmt 1
  82              		.loc 1 22 19 is_stmt 0
  83 0050 97000000 		call	_ZN8kConsole4initEv@plt
  83      E7800000 
  84              	.LVL4:
  23:src/main.cpp  **** 
  24:src/main.cpp  ****     TCB *mainoo;
  85              		.loc 1 24 5 is_stmt 1
  25:src/main.cpp  **** 
  26:src/main.cpp  ****     thread_create(&mainoo, nullptr, nullptr);
  86              		.loc 1 26 5
  87              		.loc 1 26 18 is_stmt 0
  88 0058 13060000 		li	a2,0
  89 005c 93050000 		li	a1,0
  90 0060 130584FD 		addi	a0,s0,-40
  91 0064 97000000 		call	_Z13thread_createPP3TCBPFvPvES2_@plt
  91      E7800000 
  92              	.LVL5:
  27:src/main.cpp  ****     TCB::running = mainoo;
  93              		.loc 1 27 5 is_stmt 1
  94              		.loc 1 27 18 is_stmt 0
  95 006c 97070000 		la	a5,_ZN3TCB7runningE
  95      83B70700 
  96 0074 033784FD 		ld	a4,-40(s0)
  97 0078 23B0E700 		sd	a4,0(a5)
  28:src/main.cpp  **** 
  29:src/main.cpp  ****     Riscv::ms_sstatus(Riscv::SSTATUS_SIE);
  98              		.loc 1 29 5 is_stmt 1
  99              	.LVL6:
 100              	.LBB24:
 101              	.LBB25:
 129:src/../h/../h/../h/../h/riscv.hpp **** 
 130:src/../h/../h/../h/../h/riscv.hpp **** inline uint64 Riscv::r_stval()
 131:src/../h/../h/../h/../h/riscv.hpp **** {
 132:src/../h/../h/../h/../h/riscv.hpp ****     uint64 volatile stval;
 133:src/../h/../h/../h/../h/riscv.hpp ****     __asm__ volatile ("csrr %[stval], stval" : [stval] "=r"(stval));
 134:src/../h/../h/../h/../h/riscv.hpp ****     return stval;
 135:src/../h/../h/../h/../h/riscv.hpp **** 
 136:src/../h/../h/../h/../h/riscv.hpp **** }
 137:src/../h/../h/../h/../h/riscv.hpp **** 
 138:src/../h/../h/../h/../h/riscv.hpp **** inline uint64 Riscv::r_ra()
 139:src/../h/../h/../h/../h/riscv.hpp **** {
 140:src/../h/../h/../h/../h/riscv.hpp ****     uint64 volatile ra;
 141:src/../h/../h/../h/../h/riscv.hpp ****     __asm__ volatile ("mv %[ra], ra" : [ra] "=r"(ra));
 142:src/../h/../h/../h/../h/riscv.hpp ****     return ra;
 143:src/../h/../h/../h/../h/riscv.hpp **** }
 144:src/../h/../h/../h/../h/riscv.hpp **** 
 145:src/../h/../h/../h/../h/riscv.hpp **** inline void Riscv::w_stval(uint64 stval)
 146:src/../h/../h/../h/../h/riscv.hpp **** {
 147:src/../h/../h/../h/../h/riscv.hpp ****     __asm__ volatile ("csrw stval, %[stval]" : : [stval] "r"(stval));
 148:src/../h/../h/../h/../h/riscv.hpp **** }
GAS LISTING /tmp/cctOiZNa.s 			page 6


 149:src/../h/../h/../h/../h/riscv.hpp **** 
 150:src/../h/../h/../h/../h/riscv.hpp **** inline void Riscv::ms_sip(uint64 mask)
 151:src/../h/../h/../h/../h/riscv.hpp **** {
 152:src/../h/../h/../h/../h/riscv.hpp ****     __asm__ volatile ("csrs sip, %[mask]" : : [mask] "r"(mask));
 153:src/../h/../h/../h/../h/riscv.hpp **** }
 154:src/../h/../h/../h/../h/riscv.hpp **** 
 155:src/../h/../h/../h/../h/riscv.hpp **** inline void Riscv::mc_sip(uint64 mask)
 156:src/../h/../h/../h/../h/riscv.hpp **** {
 157:src/../h/../h/../h/../h/riscv.hpp ****     __asm__ volatile ("csrc sip, %[mask]" : : [mask] "r"(mask));
 158:src/../h/../h/../h/../h/riscv.hpp **** }
 159:src/../h/../h/../h/../h/riscv.hpp **** 
 160:src/../h/../h/../h/../h/riscv.hpp **** inline uint64 Riscv::r_sip()
 161:src/../h/../h/../h/../h/riscv.hpp **** {
 162:src/../h/../h/../h/../h/riscv.hpp ****     uint64 volatile sip;
 163:src/../h/../h/../h/../h/riscv.hpp ****     __asm__ volatile ("csrr %[sip], sip" : [sip] "=r"(sip));
 164:src/../h/../h/../h/../h/riscv.hpp ****     return sip;
 165:src/../h/../h/../h/../h/riscv.hpp **** }
 166:src/../h/../h/../h/../h/riscv.hpp **** 
 167:src/../h/../h/../h/../h/riscv.hpp **** inline void Riscv::w_sip(uint64 sip)
 168:src/../h/../h/../h/../h/riscv.hpp **** {
 169:src/../h/../h/../h/../h/riscv.hpp ****     __asm__ volatile ("csrw sip, %[sip]" : : [sip] "r"(sip));
 170:src/../h/../h/../h/../h/riscv.hpp **** }
 171:src/../h/../h/../h/../h/riscv.hpp **** 
 172:src/../h/../h/../h/../h/riscv.hpp **** inline void Riscv::ms_sstatus(uint64 mask)
 173:src/../h/../h/../h/../h/riscv.hpp **** {
 174:src/../h/../h/../h/../h/riscv.hpp ****     __asm__ volatile ("csrs sstatus, %[mask]" : : [mask] "r"(mask));
 102              		.loc 2 174 5
 103              		.loc 2 174 68 is_stmt 0
 104 007c 93072000 		li	a5,2
 105              	#APP
 106              	# 174 "src/../h/../h/../h/../h/riscv.hpp" 1
 175              	}
 107              		csrs sstatus, a5
 108              	# 0 "" 2
 109              	.LVL7:
 110              	#NO_APP
 111              	.LBE25:
 112              	.LBE24:
  30:src/main.cpp  **** 
  31:src/main.cpp  ****     Riscv::ms_sstatus(Riscv::SSTATUS_SPP);
 113              		.loc 1 31 5 is_stmt 1
 114              	.LBB26:
 115              	.LBB27:
 174:src/../h/../h/../h/../h/riscv.hpp **** }
 116              		.loc 2 174 5
 174:src/../h/../h/../h/../h/riscv.hpp **** }
 117              		.loc 2 174 68 is_stmt 0
 118 0084 93070010 		li	a5,256
 119              	#APP
 120              	# 174 "src/../h/../h/../h/../h/riscv.hpp" 1
 121              		csrs sstatus, a5
 122              	# 0 "" 2
 123              	.LVL8:
 124              	#NO_APP
 125              	.LBE27:
 126              	.LBE26:
  32:src/main.cpp  **** 
GAS LISTING /tmp/cctOiZNa.s 			page 7


  33:src/main.cpp  ****     TCB *nit;
 127              		.loc 1 33 5 is_stmt 1
  34:src/main.cpp  **** 
  35:src/main.cpp  ****     thread_create(&nit, wrp, nullptr);
 128              		.loc 1 35 5
 129              		.loc 1 35 18 is_stmt 0
 130 008c 13060000 		li	a2,0
 131 0090 97050000 		lla	a1,_Z3wrpPv
 131      93850500 
 132 0098 130504FD 		addi	a0,s0,-48
 133 009c 97000000 		call	_Z13thread_createPP3TCBPFvPvES2_@plt
 133      E7800000 
 134              	.LVL9:
 135              	.L5:
  36:src/main.cpp  **** 
  37:src/main.cpp  ****     while (!nit->isFinished()) {
 136              		.loc 1 37 5 is_stmt 1
 137              		.loc 1 37 12
 138              		.loc 1 37 28 is_stmt 0
 139 00a4 833704FD 		ld	a5,-48(s0)
 140              	.LVL10:
 141              	.LBB28:
 142              	.LBB29:
 143              		.file 3 "src/../h/tcb.hpp"
   1:src/../h/tcb.hpp **** //
   2:src/../h/tcb.hpp **** // Created by os on 5/15/24.
   3:src/../h/tcb.hpp **** //
   4:src/../h/tcb.hpp **** 
   5:src/../h/tcb.hpp **** #ifndef PROJECT_BASE_TCB_HPP
   6:src/../h/tcb.hpp **** #define PROJECT_BASE_TCB_HPP
   7:src/../h/tcb.hpp **** #include "../lib/hw.h"
   8:src/../h/tcb.hpp **** #include "../h/scheduler.hpp"
   9:src/../h/tcb.hpp **** #include "../h/tipovi.hpp"
  10:src/../h/tcb.hpp **** #include "../h/sem.hpp"
  11:src/../h/tcb.hpp **** #include "../h/Allocator.hpp"
  12:src/../h/tcb.hpp **** // dio preuzet sa Teamsa
  13:src/../h/tcb.hpp **** class TCB
  14:src/../h/tcb.hpp **** {
  15:src/../h/tcb.hpp **** public:
  16:src/../h/tcb.hpp ****     static int putcP;
  17:src/../h/tcb.hpp **** 
  18:src/../h/tcb.hpp ****     bool isFinished() const { return finished; }
 144              		.loc 3 18 31 is_stmt 1
 145              		.loc 3 18 38 is_stmt 0
 146 00a8 83C78702 		lbu	a5,40(a5)
 147              	.LVL11:
 148              	.LBE29:
 149              	.LBE28:
 150              		.loc 1 37 12
 151 00ac 63980700 		bnez	a5,.L4
  38:src/main.cpp  ****         thread_dispatch();
 152              		.loc 1 38 9 is_stmt 1
 153              		.loc 1 38 24 is_stmt 0
 154 00b0 97000000 		call	_Z15thread_dispatchv@plt
 154      E7800000 
 155              	.LVL12:
 156 00b8 6FF0DFFE 		j	.L5
GAS LISTING /tmp/cctOiZNa.s 			page 8


 157              	.L4:
  39:src/main.cpp  ****     }
  40:src/main.cpp  **** 
  41:src/main.cpp  ****     Riscv::ms_sstatus(Riscv::SSTATUS_SPP);
 158              		.loc 1 41 5 is_stmt 1
 159              	.LVL13:
 160              	.LBB30:
 161              	.LBB31:
 174:src/../h/../h/../h/../h/riscv.hpp **** }
 162              		.loc 2 174 5
 174:src/../h/../h/../h/../h/riscv.hpp **** }
 163              		.loc 2 174 68 is_stmt 0
 164 00bc 93070010 		li	a5,256
 165              	#APP
 166              	# 174 "src/../h/../h/../h/../h/riscv.hpp" 1
 167              		csrs sstatus, a5
 168              	# 0 "" 2
 169              	.LVL14:
 170              	#NO_APP
 171              	.LBE31:
 172              	.LBE30:
  42:src/main.cpp  **** 
  43:src/main.cpp  ****     printStringMoj("Kernel finished\n");
 173              		.loc 1 43 5 is_stmt 1
 174              		.loc 1 43 19 is_stmt 0
 175 00c4 17050000 		lla	a0,.LC0
 175      13050500 
 176 00cc 97000000 		call	_Z14printStringMojPKc@plt
 176      E7800000 
 177              	.LVL15:
  44:src/main.cpp  **** 
  45:src/main.cpp  ****     Riscv::kernelEnd(nullptr);
 178              		.loc 1 45 5 is_stmt 1
 179              		.loc 1 45 21 is_stmt 0
 180 00d4 13050000 		li	a0,0
 181 00d8 97000000 		call	_ZN5Riscv9kernelEndEPv@plt
 181      E7800000 
 182              	.LVL16:
  46:src/main.cpp  **** 
  47:src/main.cpp  ****     delete mainoo;
 183              		.loc 1 47 5 is_stmt 1
 184              		.loc 1 47 12 is_stmt 0
 185 00e0 833484FD 		ld	s1,-40(s0)
 186              		.loc 1 47 18
 187 00e4 63800402 		beqz	s1,.L6
 188              	.LVL17:
 189              	.LBB32:
 190              	.LBB33:
  19:src/../h/tcb.hpp **** 
  20:src/../h/tcb.hpp ****     void setFinished(bool value) { finished = value; }
  21:src/../h/tcb.hpp **** 
  22:src/../h/tcb.hpp ****     uint64 getTimeSlice() const { return timeSlice; }
  23:src/../h/tcb.hpp **** 
  24:src/../h/tcb.hpp ****     static void putToSleep(time_t t);
  25:src/../h/tcb.hpp **** 
  26:src/../h/tcb.hpp ****     using Body = void (*)(void*);
  27:src/../h/tcb.hpp **** 
GAS LISTING /tmp/cctOiZNa.s 			page 9


  28:src/../h/tcb.hpp ****     Body getBody() {return body;};
  29:src/../h/tcb.hpp **** 
  30:src/../h/tcb.hpp ****     static int thread_create(TCB** handle, Body body,void *arg, uint64* stack);
  31:src/../h/tcb.hpp **** 
  32:src/../h/tcb.hpp ****     static void yield();
  33:src/../h/tcb.hpp **** 
  34:src/../h/tcb.hpp ****     static TCB *running;
  35:src/../h/tcb.hpp **** 
  36:src/../h/tcb.hpp ****     static List<TCB> sleeping;
  37:src/../h/tcb.hpp **** 
  38:src/../h/tcb.hpp ****     void* operator new(size_t size) {
  39:src/../h/tcb.hpp ****         return Allocator::_malloc(size);
  40:src/../h/tcb.hpp ****     }
  41:src/../h/tcb.hpp **** 
  42:src/../h/tcb.hpp ****     void operator delete(void* ptr) {
  43:src/../h/tcb.hpp ****         Allocator::_mem_free(ptr);
  44:src/../h/tcb.hpp ****     }
  45:src/../h/tcb.hpp **** 
  46:src/../h/tcb.hpp ****     void* operator new[](size_t size) {
  47:src/../h/tcb.hpp ****         return Allocator::_malloc(size);
  48:src/../h/tcb.hpp ****     }
  49:src/../h/tcb.hpp **** 
  50:src/../h/tcb.hpp ****     void operator delete[](void* ptr) {
  51:src/../h/tcb.hpp ****         Allocator::_mem_free(ptr);
  52:src/../h/tcb.hpp ****     }
  53:src/../h/tcb.hpp **** 
  54:src/../h/tcb.hpp ****     ~TCB() { delete[] stack;}
 191              		.loc 3 54 14 is_stmt 1
 192              		.loc 3 54 23 is_stmt 0
 193 00e8 03B58400 		ld	a0,8(s1)
 194              		.loc 3 54 28
 195 00ec 63060500 		beqz	a0,.L7
 196              		.loc 3 54 23
 197 00f0 97000000 		call	_ZdaPv@plt
 197      E7800000 
 198              	.LVL18:
 199              	.L7:
 200              	.LBE33:
 201              	.LBE32:
 202              	.LBB34:
 203              	.LBB35:
  43:src/../h/tcb.hpp ****     }
 204              		.loc 3 43 9 is_stmt 1
  43:src/../h/tcb.hpp ****     }
 205              		.loc 3 43 29 is_stmt 0
 206 00f8 13850400 		mv	a0,s1
 207 00fc 97000000 		call	_ZN9Allocator9_mem_freeEPv@plt
 207      E7800000 
 208              	.LVL19:
 209              	.L6:
 210              	.LBE35:
 211              	.LBE34:
  48:src/main.cpp  ****     delete nit;
 212              		.loc 1 48 5 is_stmt 1
 213              		.loc 1 48 12 is_stmt 0
 214 0104 833404FD 		ld	s1,-48(s0)
 215              		.loc 1 48 15
GAS LISTING /tmp/cctOiZNa.s 			page 10


 216 0108 63800402 		beqz	s1,.L8
 217              	.LVL20:
 218              	.LBB36:
 219              	.LBB37:
 220              		.loc 3 54 14 is_stmt 1
 221              		.loc 3 54 23 is_stmt 0
 222 010c 03B58400 		ld	a0,8(s1)
 223              		.loc 3 54 28
 224 0110 63060500 		beqz	a0,.L9
 225              		.loc 3 54 23
 226 0114 97000000 		call	_ZdaPv@plt
 226      E7800000 
 227              	.LVL21:
 228              	.L9:
 229              	.LBE37:
 230              	.LBE36:
 231              	.LBB38:
 232              	.LBB39:
  43:src/../h/tcb.hpp ****     }
 233              		.loc 3 43 9 is_stmt 1
  43:src/../h/tcb.hpp ****     }
 234              		.loc 3 43 29 is_stmt 0
 235 011c 13850400 		mv	a0,s1
 236 0120 97000000 		call	_ZN9Allocator9_mem_freeEPv@plt
 236      E7800000 
 237              	.LVL22:
 238              	.L8:
 239              	.LBE39:
 240              	.LBE38:
  49:src/main.cpp  **** 
  50:src/main.cpp  ****     kConsole::endConsole();
 241              		.loc 1 50 5 is_stmt 1
 242              		.loc 1 50 25 is_stmt 0
 243 0128 97000000 		call	_ZN8kConsole10endConsoleEv@plt
 243      E7800000 
 244              	.LVL23:
  51:src/main.cpp  **** 
  52:src/main.cpp  ****     __asm__ volatile ("li t0, 0x5555");
 245              		.loc 1 52 5 is_stmt 1
 246              		.loc 1 52 39 is_stmt 0
 247              	#APP
 248              	# 52 "src/main.cpp" 1
  53              	    __asm__ volatile ("li t1, 0x100000");
 249              		li t0, 0x5555
 250              	# 0 "" 2
 251              		.loc 1 53 5 is_stmt 1
 252              		.loc 1 53 41 is_stmt 0
 253              	# 53 "src/main.cpp" 1
  54              	    __asm__ volatile ("sw t0, 0(t1)");
 254              		li t1, 0x100000
 255              	# 0 "" 2
 256              		.loc 1 54 5 is_stmt 1
 257              		.loc 1 54 38 is_stmt 0
 258              	# 54 "src/main.cpp" 1
  55              	
  56:src/main.cpp  ****     return 0;
 259              		sw t0, 0(t1)
GAS LISTING /tmp/cctOiZNa.s 			page 11


 260              	# 0 "" 2
 261              		.loc 1 56 5 is_stmt 1
  57:src/main.cpp  ****  }
 262              		.loc 1 57 2 is_stmt 0
 263              	#NO_APP
 264 0140 13050000 		li	a0,0
 265 0144 83308102 		ld	ra,40(sp)
 266              		.cfi_restore 1
 267 0148 03340102 		ld	s0,32(sp)
 268              		.cfi_restore 8
 269              		.cfi_def_cfa 2, 48
 270 014c 83348101 		ld	s1,24(sp)
 271              		.cfi_restore 9
 272 0150 13010103 		addi	sp,sp,48
 273              		.cfi_def_cfa_offset 0
 274 0154 67800000 		jr	ra
 275              		.cfi_endproc
 276              	.LFE60:
 278              		.globl	s1
 279              		.bss
 280              		.align	3
 283              	s1:
 284 0000 00000000 		.zero	8
 284      00000000 
 285              		.text
 286              	.Letext0:
 287              		.file 4 "src/../h/../lib/hw.h"
 288              		.file 5 "src/../h/../h/../h/../h/Allocator.hpp"
 289              		.file 6 "src/../h/../h/../h/list.hpp"
 290              		.file 7 "src/../h/../h/tipovi.hpp"
 291              		.file 8 "src/../h/../h/sem.hpp"
 292              		.file 9 "src/../h/../h/../h/../h/../h/../h/kBuffer.hpp"
 293              		.file 10 "src/../h/../h/../h/../h/../h/kConsole.hpp"
 294              		.file 11 "src/../h/../h/../h/syscall_c.h"
 295              		.file 12 "src/../h/../h/../h/print.hpp"
GAS LISTING /tmp/cctOiZNa.s 			page 12


DEFINED SYMBOLS
                            *ABS*:0000000000000000 main.cpp
     /tmp/cctOiZNa.s:9      .text:0000000000000000 _Z3wrpPv
     /tmp/cctOiZNa.s:13     .text:0000000000000000 .L0 
     /tmp/cctOiZNa.s:14     .text:0000000000000000 .L0 
     /tmp/cctOiZNa.s:15     .text:0000000000000004 .L0 
     /tmp/cctOiZNa.s:18     .text:000000000000000c .L0 
     /tmp/cctOiZNa.s:19     .text:000000000000000c .L0 
     /tmp/cctOiZNa.s:21     .text:0000000000000010 .L0 
     /tmp/cctOiZNa.s:23     .text:0000000000000010 .L0 
     /tmp/cctOiZNa.s:24     .text:0000000000000010 .L0 
     /tmp/cctOiZNa.s:27     .text:0000000000000018 .L0 
     /tmp/cctOiZNa.s:28     .text:000000000000001c .L0 
     /tmp/cctOiZNa.s:30     .text:0000000000000020 .L0 
     /tmp/cctOiZNa.s:31     .text:0000000000000020 .L0 
     /tmp/cctOiZNa.s:33     .text:0000000000000024 .L0 
     /tmp/cctOiZNa.s:35     .text:0000000000000028 .L0 
     /tmp/cctOiZNa.s:46     .text:0000000000000028 main
     /tmp/cctOiZNa.s:49     .text:0000000000000028 .L0 
     /tmp/cctOiZNa.s:50     .text:0000000000000028 .L0 
     /tmp/cctOiZNa.s:51     .text:000000000000002c .L0 
     /tmp/cctOiZNa.s:55     .text:0000000000000038 .L0 
     /tmp/cctOiZNa.s:56     .text:0000000000000038 .L0 
     /tmp/cctOiZNa.s:57     .text:0000000000000038 .L0 
     /tmp/cctOiZNa.s:59     .text:000000000000003c .L0 
     /tmp/cctOiZNa.s:61     .text:000000000000003c .L0 
     /tmp/cctOiZNa.s:62     .text:000000000000003c .L0 
     /tmp/cctOiZNa.s:68     .text:0000000000000044 .L0 
src/../h/../h/../h/../h/riscv.hpp:127    .text:0000000000000044 .L0 
     /tmp/cctOiZNa.s:78     .text:0000000000000048 .L0 
     /tmp/cctOiZNa.s:79     .text:0000000000000048 .L0 
     /tmp/cctOiZNa.s:82     .text:0000000000000050 .L0 
     /tmp/cctOiZNa.s:83     .text:0000000000000050 .L0 
     /tmp/cctOiZNa.s:86     .text:0000000000000058 .L0 
     /tmp/cctOiZNa.s:87     .text:0000000000000058 .L0 
     /tmp/cctOiZNa.s:88     .text:0000000000000058 .L0 
     /tmp/cctOiZNa.s:94     .text:000000000000006c .L0 
     /tmp/cctOiZNa.s:95     .text:000000000000006c .L0 
     /tmp/cctOiZNa.s:102    .text:000000000000007c .L0 
     /tmp/cctOiZNa.s:103    .text:000000000000007c .L0 
     /tmp/cctOiZNa.s:104    .text:000000000000007c .L0 
     /tmp/cctOiZNa.s:116    .text:0000000000000084 .L0 
     /tmp/cctOiZNa.s:117    .text:0000000000000084 .L0 
     /tmp/cctOiZNa.s:118    .text:0000000000000084 .L0 
     /tmp/cctOiZNa.s:128    .text:000000000000008c .L0 
     /tmp/cctOiZNa.s:129    .text:000000000000008c .L0 
     /tmp/cctOiZNa.s:130    .text:000000000000008c .L0 
     /tmp/cctOiZNa.s:137    .text:00000000000000a4 .L0 
     /tmp/cctOiZNa.s:138    .text:00000000000000a4 .L0 
     /tmp/cctOiZNa.s:139    .text:00000000000000a4 .L0 
     /tmp/cctOiZNa.s:145    .text:00000000000000a8 .L0 
     /tmp/cctOiZNa.s:146    .text:00000000000000a8 .L0 
     /tmp/cctOiZNa.s:151    .text:00000000000000ac .L0 
     /tmp/cctOiZNa.s:153    .text:00000000000000b0 .L0 
     /tmp/cctOiZNa.s:154    .text:00000000000000b0 .L0 
     /tmp/cctOiZNa.s:162    .text:00000000000000bc .L0 
     /tmp/cctOiZNa.s:163    .text:00000000000000bc .L0 
GAS LISTING /tmp/cctOiZNa.s 			page 13


     /tmp/cctOiZNa.s:164    .text:00000000000000bc .L0 
     /tmp/cctOiZNa.s:174    .text:00000000000000c4 .L0 
     /tmp/cctOiZNa.s:175    .text:00000000000000c4 .L0 
     /tmp/cctOiZNa.s:179    .text:00000000000000d4 .L0 
     /tmp/cctOiZNa.s:180    .text:00000000000000d4 .L0 
     /tmp/cctOiZNa.s:184    .text:00000000000000e0 .L0 
     /tmp/cctOiZNa.s:185    .text:00000000000000e0 .L0 
     /tmp/cctOiZNa.s:187    .text:00000000000000e4 .L0 
     /tmp/cctOiZNa.s:192    .text:00000000000000e8 .L0 
     /tmp/cctOiZNa.s:193    .text:00000000000000e8 .L0 
     /tmp/cctOiZNa.s:195    .text:00000000000000ec .L0 
     /tmp/cctOiZNa.s:197    .text:00000000000000f0 .L0 
     /tmp/cctOiZNa.s:205    .text:00000000000000f8 .L0 
     /tmp/cctOiZNa.s:206    .text:00000000000000f8 .L0 
     /tmp/cctOiZNa.s:213    .text:0000000000000104 .L0 
     /tmp/cctOiZNa.s:214    .text:0000000000000104 .L0 
     /tmp/cctOiZNa.s:216    .text:0000000000000108 .L0 
     /tmp/cctOiZNa.s:221    .text:000000000000010c .L0 
     /tmp/cctOiZNa.s:222    .text:000000000000010c .L0 
     /tmp/cctOiZNa.s:224    .text:0000000000000110 .L0 
     /tmp/cctOiZNa.s:226    .text:0000000000000114 .L0 
     /tmp/cctOiZNa.s:234    .text:000000000000011c .L0 
     /tmp/cctOiZNa.s:235    .text:000000000000011c .L0 
     /tmp/cctOiZNa.s:242    .text:0000000000000128 .L0 
     /tmp/cctOiZNa.s:243    .text:0000000000000128 .L0 
     /tmp/cctOiZNa.s:246    .text:0000000000000130 .L0 
        src/main.cpp:52     .text:0000000000000130 .L0 
     /tmp/cctOiZNa.s:252    .text:0000000000000138 .L0 
        src/main.cpp:53     .text:0000000000000138 .L0 
     /tmp/cctOiZNa.s:257    .text:000000000000013c .L0 
        src/main.cpp:54     .text:000000000000013c .L0 
     /tmp/cctOiZNa.s:262    .text:0000000000000140 .L0 
     /tmp/cctOiZNa.s:264    .text:0000000000000140 .L0 
     /tmp/cctOiZNa.s:266    .text:0000000000000148 .L0 
     /tmp/cctOiZNa.s:268    .text:000000000000014c .L0 
     /tmp/cctOiZNa.s:269    .text:000000000000014c .L0 
     /tmp/cctOiZNa.s:271    .text:0000000000000150 .L0 
     /tmp/cctOiZNa.s:273    .text:0000000000000154 .L0 
     /tmp/cctOiZNa.s:275    .text:0000000000000158 .L0 
     /tmp/cctOiZNa.s:283    .bss:0000000000000000 s1
     /tmp/cctOiZNa.s:296    .text:0000000000000158 .L0 
     /tmp/cctOiZNa.s:62     .text:000000000000003c .L0 
     /tmp/cctOiZNa.s:95     .text:000000000000006c .L0 
     /tmp/cctOiZNa.s:131    .text:0000000000000090 .L0 
     /tmp/cctOiZNa.s:40     .rodata.str1.8:0000000000000000 .LC0
     /tmp/cctOiZNa.s:175    .text:00000000000000c4 .L0 
     /tmp/cctOiZNa.s:157    .text:00000000000000bc .L4
     /tmp/cctOiZNa.s:135    .text:00000000000000a4 .L5
     /tmp/cctOiZNa.s:209    .text:0000000000000104 .L6
     /tmp/cctOiZNa.s:199    .text:00000000000000f8 .L7
     /tmp/cctOiZNa.s:238    .text:0000000000000128 .L8
     /tmp/cctOiZNa.s:228    .text:000000000000011c .L9
     /tmp/cctOiZNa.s:2220   .debug_abbrev:0000000000000000 .Ldebug_abbrev0
     /tmp/cctOiZNa.s:3844   .debug_str:0000000000000ba8 .LASF227
     /tmp/cctOiZNa.s:3560   .debug_str:0000000000000370 .LASF228
     /tmp/cctOiZNa.s:3808   .debug_str:0000000000000ab8 .LASF229
     /tmp/cctOiZNa.s:5      .text:0000000000000000 .Ltext0
GAS LISTING /tmp/cctOiZNa.s 			page 14


     /tmp/cctOiZNa.s:286    .text:0000000000000158 .Letext0
     /tmp/cctOiZNa.s:3448   .debug_line:0000000000000000 .Ldebug_line0
     /tmp/cctOiZNa.s:3602   .debug_str:0000000000000498 .LASF0
     /tmp/cctOiZNa.s:3644   .debug_str:00000000000005eb .LASF1
     /tmp/cctOiZNa.s:3772   .debug_str:0000000000000996 .LASF2
     /tmp/cctOiZNa.s:3782   .debug_str:00000000000009de .LASF4
     /tmp/cctOiZNa.s:3620   .debug_str:000000000000051b .LASF3
     /tmp/cctOiZNa.s:3470   .debug_str:0000000000000098 .LASF5
     /tmp/cctOiZNa.s:3744   .debug_str:00000000000008d8 .LASF6
     /tmp/cctOiZNa.s:3730   .debug_str:000000000000087a .LASF7
     /tmp/cctOiZNa.s:3632   .debug_str:0000000000000590 .LASF8
     /tmp/cctOiZNa.s:3574   .debug_str:00000000000003c5 .LASF9
     /tmp/cctOiZNa.s:3584   .debug_str:0000000000000421 .LASF10
     /tmp/cctOiZNa.s:3502   .debug_str:0000000000000194 .LASF11
     /tmp/cctOiZNa.s:3558   .debug_str:0000000000000361 .LASF12
     /tmp/cctOiZNa.s:3518   .debug_str:0000000000000211 .LASF13
     /tmp/cctOiZNa.s:3500   .debug_str:0000000000000184 .LASF14
     /tmp/cctOiZNa.s:3820   .debug_str:0000000000000b27 .LASF15
     /tmp/cctOiZNa.s:3544   .debug_str:00000000000002c3 .LASF16
     /tmp/cctOiZNa.s:3806   .debug_str:0000000000000aa2 .LASF17
     /tmp/cctOiZNa.s:3488   .debug_str:000000000000010e .LASF25
     /tmp/cctOiZNa.s:3798   .debug_str:0000000000000a60 .LASF48
     /tmp/cctOiZNa.s:3504   .debug_str:00000000000001a3 .LASF18
     /tmp/cctOiZNa.s:3642   .debug_str:00000000000005e6 .LASF19
     /tmp/cctOiZNa.s:3722   .debug_str:000000000000083a .LASF20
     /tmp/cctOiZNa.s:3812   .debug_str:0000000000000af9 .LASF27
     /tmp/cctOiZNa.s:3486   .debug_str:0000000000000109 .LASF61
     /tmp/cctOiZNa.s:3478   .debug_str:00000000000000cd .LASF63
     /tmp/cctOiZNa.s:3674   .debug_str:00000000000006cb .LASF21
     /tmp/cctOiZNa.s:3846   .debug_str:0000000000000c6c .LASF23
     /tmp/cctOiZNa.s:3480   .debug_str:00000000000000e2 .LASF22
     /tmp/cctOiZNa.s:3784   .debug_str:00000000000009e5 .LASF24
     /tmp/cctOiZNa.s:3838   .debug_str:0000000000000b8e .LASF92
     /tmp/cctOiZNa.s:3704   .debug_str:00000000000007b1 .LASF94
     /tmp/cctOiZNa.s:3888   .debug_str:0000000000000d96 .LASF26
     /tmp/cctOiZNa.s:3872   .debug_str:0000000000000d34 .LASF230
     /tmp/cctOiZNa.s:3706   .debug_str:00000000000007d7 .LASF28
     /tmp/cctOiZNa.s:3694   .debug_str:0000000000000772 .LASF29
     /tmp/cctOiZNa.s:3824   .debug_str:0000000000000b3a .LASF30
     /tmp/cctOiZNa.s:3556   .debug_str:000000000000034a .LASF36
     /tmp/cctOiZNa.s:3776   .debug_str:00000000000009b1 .LASF231
     /tmp/cctOiZNa.s:3764   .debug_str:000000000000095d .LASF232
     /tmp/cctOiZNa.s:3638   .debug_str:00000000000005d1 .LASF31
     /tmp/cctOiZNa.s:3496   .debug_str:000000000000014d .LASF32
     /tmp/cctOiZNa.s:3666   .debug_str:0000000000000698 .LASF33
     /tmp/cctOiZNa.s:3546   .debug_str:00000000000002d9 .LASF34
     /tmp/cctOiZNa.s:3728   .debug_str:000000000000086e .LASF35
     /tmp/cctOiZNa.s:3892   .debug_str:0000000000000dad .LASF37
     /tmp/cctOiZNa.s:3926   .debug_str:0000000000000eb9 .LASF38
     /tmp/cctOiZNa.s:3912   .debug_str:0000000000000e3b .LASF39
     /tmp/cctOiZNa.s:3796   .debug_str:0000000000000a55 .LASF40
     /tmp/cctOiZNa.s:3630   .debug_str:0000000000000573 .LASF41
     /tmp/cctOiZNa.s:3758   .debug_str:000000000000093d .LASF42
     /tmp/cctOiZNa.s:3460   .debug_str:000000000000002b .LASF43
     /tmp/cctOiZNa.s:3886   .debug_str:0000000000000d88 .LASF44
     /tmp/cctOiZNa.s:3810   .debug_str:0000000000000acf .LASF45
     /tmp/cctOiZNa.s:3624   .debug_str:000000000000053d .LASF46
GAS LISTING /tmp/cctOiZNa.s 			page 15


     /tmp/cctOiZNa.s:3542   .debug_str:00000000000002a2 .LASF47
     /tmp/cctOiZNa.s:3828   .debug_str:0000000000000b56 .LASF49
     /tmp/cctOiZNa.s:3530   .debug_str:0000000000000279 .LASF50
     /tmp/cctOiZNa.s:3830   .debug_str:0000000000000b5e .LASF51
     /tmp/cctOiZNa.s:3702   .debug_str:000000000000079a .LASF52
     /tmp/cctOiZNa.s:3490   .debug_str:0000000000000118 .LASF53
     /tmp/cctOiZNa.s:3864   .debug_str:0000000000000cf4 .LASF54
     /tmp/cctOiZNa.s:3654   .debug_str:000000000000063c .LASF55
     /tmp/cctOiZNa.s:3876   .debug_str:0000000000000d43 .LASF56
     /tmp/cctOiZNa.s:3756   .debug_str:0000000000000932 .LASF69
     /tmp/cctOiZNa.s:3914   .debug_str:0000000000000e56 .LASF71
     /tmp/cctOiZNa.s:3766   .debug_str:0000000000000974 .LASF233
     /tmp/cctOiZNa.s:3752   .debug_str:000000000000091a .LASF57
     /tmp/cctOiZNa.s:3672   .debug_str:00000000000006b9 .LASF58
     /tmp/cctOiZNa.s:3818   .debug_str:0000000000000b19 .LASF59
     /tmp/cctOiZNa.s:3526   .debug_str:0000000000000240 .LASF60
     /tmp/cctOiZNa.s:3648   .debug_str:0000000000000608 .LASF62
     /tmp/cctOiZNa.s:3848   .debug_str:0000000000000c84 .LASF64
     /tmp/cctOiZNa.s:3840   .debug_str:0000000000000b93 .LASF65
     /tmp/cctOiZNa.s:3826   .debug_str:0000000000000b4d .LASF66
     /tmp/cctOiZNa.s:3920   .debug_str:0000000000000e9b .LASF67
     /tmp/cctOiZNa.s:3580   .debug_str:00000000000003f9 .LASF68
     /tmp/cctOiZNa.s:3456   .debug_str:0000000000000013 .LASF70
     /tmp/cctOiZNa.s:3670   .debug_str:00000000000006ac .LASF72
     /tmp/cctOiZNa.s:3676   .debug_str:00000000000006d3 .LASF73
     /tmp/cctOiZNa.s:3568   .debug_str:000000000000038e .LASF74
     /tmp/cctOiZNa.s:3804   .debug_str:0000000000000a8f .LASF75
     /tmp/cctOiZNa.s:3774   .debug_str:00000000000009a4 .LASF76
     /tmp/cctOiZNa.s:3750   .debug_str:0000000000000915 .LASF77
     /tmp/cctOiZNa.s:3464   .debug_str:000000000000006d .LASF78
     /tmp/cctOiZNa.s:3534   .debug_str:0000000000000289 .LASF79
     /tmp/cctOiZNa.s:3512   .debug_str:00000000000001dc .LASF80
     /tmp/cctOiZNa.s:3916   .debug_str:0000000000000e6c .LASF234
     /tmp/cctOiZNa.s:3454   .debug_str:000000000000000e .LASF81
     /tmp/cctOiZNa.s:3802   .debug_str:0000000000000a89 .LASF82
     /tmp/cctOiZNa.s:3860   .debug_str:0000000000000cdd .LASF83
     /tmp/cctOiZNa.s:3850   .debug_str:0000000000000c94 .LASF84
     /tmp/cctOiZNa.s:3856   .debug_str:0000000000000cc0 .LASF85
     /tmp/cctOiZNa.s:3724   .debug_str:0000000000000844 .LASF86
     /tmp/cctOiZNa.s:3696   .debug_str:0000000000000777 .LASF87
     /tmp/cctOiZNa.s:3714   .debug_str:00000000000007f4 .LASF88
     /tmp/cctOiZNa.s:3836   .debug_str:0000000000000b80 .LASF89
     /tmp/cctOiZNa.s:3768   .debug_str:0000000000000979 .LASF90
     /tmp/cctOiZNa.s:3748   .debug_str:00000000000008ff .LASF91
     /tmp/cctOiZNa.s:3494   .debug_str:000000000000013f .LASF207
     /tmp/cctOiZNa.s:3656   .debug_str:0000000000000649 .LASF209
     /tmp/cctOiZNa.s:3522   .debug_str:000000000000022a .LASF93
     /tmp/cctOiZNa.s:3462   .debug_str:0000000000000045 .LASF95
     /tmp/cctOiZNa.s:3790   .debug_str:0000000000000a1a .LASF98
     /tmp/cctOiZNa.s:3780   .debug_str:00000000000009d3 .LASF96
     /tmp/cctOiZNa.s:3904   .debug_str:0000000000000e08 .LASF97
     /tmp/cctOiZNa.s:3742   .debug_str:00000000000008cb .LASF99
     /tmp/cctOiZNa.s:3452   .debug_str:0000000000000007 .LASF100
     /tmp/cctOiZNa.s:3516   .debug_str:0000000000000206 .LASF101
     /tmp/cctOiZNa.s:3906   .debug_str:0000000000000e13 .LASF102
     /tmp/cctOiZNa.s:3866   .debug_str:0000000000000d0b .LASF103
     /tmp/cctOiZNa.s:3576   .debug_str:00000000000003d5 .LASF104
GAS LISTING /tmp/cctOiZNa.s 			page 16


     /tmp/cctOiZNa.s:3902   .debug_str:0000000000000dff .LASF105
     /tmp/cctOiZNa.s:3634   .debug_str:00000000000005a3 .LASF106
     /tmp/cctOiZNa.s:3718   .debug_str:0000000000000811 .LASF107
     /tmp/cctOiZNa.s:3650   .debug_str:000000000000060e .LASF108
     /tmp/cctOiZNa.s:3482   .debug_str:00000000000000ec .LASF109
     /tmp/cctOiZNa.s:3570   .debug_str:000000000000039a .LASF110
     /tmp/cctOiZNa.s:3536   .debug_str:0000000000000292 .LASF111
     /tmp/cctOiZNa.s:3506   .debug_str:00000000000001a8 .LASF112
     /tmp/cctOiZNa.s:3822   .debug_str:0000000000000b33 .LASF113
     /tmp/cctOiZNa.s:3908   .debug_str:0000000000000e19 .LASF114
     /tmp/cctOiZNa.s:3592   .debug_str:0000000000000453 .LASF115
     /tmp/cctOiZNa.s:3552   .debug_str:0000000000000312 .LASF116
     /tmp/cctOiZNa.s:3524   .debug_str:0000000000000238 .LASF117
     /tmp/cctOiZNa.s:3726   .debug_str:0000000000000850 .LASF118
     /tmp/cctOiZNa.s:3854   .debug_str:0000000000000caf .LASF119
     /tmp/cctOiZNa.s:3664   .debug_str:0000000000000684 .LASF120
     /tmp/cctOiZNa.s:3688   .debug_str:0000000000000743 .LASF121
     /tmp/cctOiZNa.s:3652   .debug_str:0000000000000628 .LASF122
     /tmp/cctOiZNa.s:3794   .debug_str:0000000000000a40 .LASF123
     /tmp/cctOiZNa.s:3532   .debug_str:000000000000027f .LASF124
     /tmp/cctOiZNa.s:3600   .debug_str:0000000000000492 .LASF125
     /tmp/cctOiZNa.s:3550   .debug_str:00000000000002fa .LASF126
     /tmp/cctOiZNa.s:3458   .debug_str:0000000000000023 .LASF127
     /tmp/cctOiZNa.s:3498   .debug_str:000000000000016a .LASF128
     /tmp/cctOiZNa.s:3692   .debug_str:000000000000076a .LASF129
     /tmp/cctOiZNa.s:3562   .debug_str:000000000000037d .LASF130
     /tmp/cctOiZNa.s:3862   .debug_str:0000000000000ce5 .LASF131
     /tmp/cctOiZNa.s:3678   .debug_str:00000000000006e3 .LASF132
     /tmp/cctOiZNa.s:3646   .debug_str:00000000000005fe .LASF133
     /tmp/cctOiZNa.s:3874   .debug_str:0000000000000d39 .LASF134
     /tmp/cctOiZNa.s:3754   .debug_str:0000000000000922 .LASF135
     /tmp/cctOiZNa.s:3882   .debug_str:0000000000000d72 .LASF136
     /tmp/cctOiZNa.s:3586   .debug_str:000000000000042f .LASF137
     /tmp/cctOiZNa.s:3686   .debug_str:0000000000000732 .LASF138
     /tmp/cctOiZNa.s:3578   .debug_str:00000000000003e9 .LASF139
     /tmp/cctOiZNa.s:3520   .debug_str:0000000000000221 .LASF140
     /tmp/cctOiZNa.s:3622   .debug_str:000000000000052d .LASF141
     /tmp/cctOiZNa.s:3610   .debug_str:00000000000004c5 .LASF235
     /tmp/cctOiZNa.s:3690   .debug_str:0000000000000758 .LASF214
     /tmp/cctOiZNa.s:3762   .debug_str:0000000000000956 .LASF142
     /tmp/cctOiZNa.s:3596   .debug_str:0000000000000465 .LASF143
     /tmp/cctOiZNa.s:3832   .debug_str:0000000000000b69 .LASF144
     /tmp/cctOiZNa.s:3910   .debug_str:0000000000000e32 .LASF145
     /tmp/cctOiZNa.s:3614   .debug_str:00000000000004e5 .LASF146
     /tmp/cctOiZNa.s:3476   .debug_str:00000000000000c0 .LASF147
     /tmp/cctOiZNa.s:3740   .debug_str:00000000000008c0 .LASF148
     /tmp/cctOiZNa.s:3492   .debug_str:0000000000000124 .LASF149
     /tmp/cctOiZNa.s:3858   .debug_str:0000000000000cc9 .LASF150
     /tmp/cctOiZNa.s:3890   .debug_str:0000000000000da0 .LASF151
     /tmp/cctOiZNa.s:3800   .debug_str:0000000000000a6c .LASF153
     /tmp/cctOiZNa.s:3612   .debug_str:00000000000004d7 .LASF152
     /tmp/cctOiZNa.s:3684   .debug_str:0000000000000714 .LASF154
     /tmp/cctOiZNa.s:3572   .debug_str:00000000000003b6 .LASF155
     /tmp/cctOiZNa.s:3554   .debug_str:000000000000032b .LASF156
     /tmp/cctOiZNa.s:3698   .debug_str:0000000000000782 .LASF157
     /tmp/cctOiZNa.s:3746   .debug_str:00000000000008df .LASF158
     /tmp/cctOiZNa.s:3732   .debug_str:000000000000088d .LASF159
GAS LISTING /tmp/cctOiZNa.s 			page 17


     /tmp/cctOiZNa.s:3792   .debug_str:0000000000000a2b .LASF160
     /tmp/cctOiZNa.s:3604   .debug_str:00000000000004a5 .LASF161
     /tmp/cctOiZNa.s:3868   .debug_str:0000000000000d16 .LASF162
     /tmp/cctOiZNa.s:3894   .debug_str:0000000000000dcb .LASF163
     /tmp/cctOiZNa.s:3878   .debug_str:0000000000000d5c .LASF236
     /tmp/cctOiZNa.s:3668   .debug_str:00000000000006a0 .LASF164
     /tmp/cctOiZNa.s:3842   .debug_str:0000000000000b9b .LASF165
     /tmp/cctOiZNa.s:3594   .debug_str:0000000000000459 .LASF166
     /tmp/cctOiZNa.s:3710   .debug_str:00000000000007e3 .LASF167
     /tmp/cctOiZNa.s:3514   .debug_str:00000000000001ef .LASF168
     /tmp/cctOiZNa.s:3590   .debug_str:0000000000000448 .LASF169
     /tmp/cctOiZNa.s:3598   .debug_str:000000000000047a .LASF170
     /tmp/cctOiZNa.s:3870   .debug_str:0000000000000d2b .LASF171
     /tmp/cctOiZNa.s:3466   .debug_str:0000000000000079 .LASF172
     /tmp/cctOiZNa.s:3922   .debug_str:0000000000000ea8 .LASF173
     /tmp/cctOiZNa.s:3716   .debug_str:00000000000007fc .LASF174
     /tmp/cctOiZNa.s:3880   .debug_str:0000000000000d6b .LASF175
     /tmp/cctOiZNa.s:3484   .debug_str:00000000000000f6 .LASF176
     /tmp/cctOiZNa.s:3708   .debug_str:00000000000007dc .LASF177
     /tmp/cctOiZNa.s:3636   .debug_str:00000000000005be .LASF178
     /tmp/cctOiZNa.s:3700   .debug_str:0000000000000792 .LASF179
     /tmp/cctOiZNa.s:3816   .debug_str:0000000000000b05 .LASF180
     /tmp/cctOiZNa.s:3628   .debug_str:000000000000056b .LASF181
     /tmp/cctOiZNa.s:3658   .debug_str:0000000000000662 .LASF182
     /tmp/cctOiZNa.s:3660   .debug_str:0000000000000676 .LASF183
     /tmp/cctOiZNa.s:3616   .debug_str:00000000000004f1 .LASF184
     /tmp/cctOiZNa.s:3924   .debug_str:0000000000000eb1 .LASF185
     /tmp/cctOiZNa.s:3608   .debug_str:00000000000004b1 .LASF186
     /tmp/cctOiZNa.s:3814   .debug_str:0000000000000afe .LASF187
     /tmp/cctOiZNa.s:3786   .debug_str:0000000000000a00 .LASF188
     /tmp/cctOiZNa.s:3788   .debug_str:0000000000000a13 .LASF189
     /tmp/cctOiZNa.s:3510   .debug_str:00000000000001c9 .LASF190
     /tmp/cctOiZNa.s:3540   .debug_str:000000000000029c .LASF191
     /tmp/cctOiZNa.s:3834   .debug_str:0000000000000b6e .LASF192
     /tmp/cctOiZNa.s:3606   .debug_str:00000000000004ab .LASF193
     /tmp/cctOiZNa.s:3528   .debug_str:0000000000000267 .LASF194
     /tmp/cctOiZNa.s:3538   .debug_str:0000000000000297 .LASF195
     /tmp/cctOiZNa.s:3852   .debug_str:0000000000000c9e .LASF196
     /tmp/cctOiZNa.s:3472   .debug_str:000000000000009f .LASF197
     /tmp/cctOiZNa.s:3778   .debug_str:00000000000009bb .LASF198
     /tmp/cctOiZNa.s:3770   .debug_str:000000000000098b .LASF199
     /tmp/cctOiZNa.s:3918   .debug_str:0000000000000e83 .LASF200
     /tmp/cctOiZNa.s:3896   .debug_str:0000000000000dd1 .LASF201
     /tmp/cctOiZNa.s:3618   .debug_str:0000000000000505 .LASF202
     /tmp/cctOiZNa.s:3508   .debug_str:00000000000001bf .LASF203
     /tmp/cctOiZNa.s:3680   .debug_str:00000000000006f1 .LASF204
     /tmp/cctOiZNa.s:3900   .debug_str:0000000000000df0 .LASF205
     /tmp/cctOiZNa.s:3582   .debug_str:0000000000000405 .LASF206
     /tmp/cctOiZNa.s:3734   .debug_str:0000000000000893 .LASF208
     /tmp/cctOiZNa.s:3626   .debug_str:0000000000000549 .LASF210
     /tmp/cctOiZNa.s:3548   .debug_str:00000000000002f5 .LASF211
     /tmp/cctOiZNa.s:3566   .debug_str:0000000000000389 .LASF212
     /tmp/cctOiZNa.s:47     .text:0000000000000028 .LFB60
     /tmp/cctOiZNa.s:276    .text:0000000000000158 .LFE60
     /tmp/cctOiZNa.s:3450   .debug_str:0000000000000000 .LASF213
     /tmp/cctOiZNa.s:64     .text:0000000000000044 .LBB22
     /tmp/cctOiZNa.s:76     .text:0000000000000048 .LBE22
GAS LISTING /tmp/cctOiZNa.s 			page 18


     /tmp/cctOiZNa.s:100    .text:000000000000007c .LBB24
     /tmp/cctOiZNa.s:112    .text:0000000000000084 .LBE24
     /tmp/cctOiZNa.s:3374   .debug_loc:0000000000000000 .LLST0
     /tmp/cctOiZNa.s:114    .text:0000000000000084 .LBB26
     /tmp/cctOiZNa.s:126    .text:000000000000008c .LBE26
     /tmp/cctOiZNa.s:3382   .debug_loc:0000000000000024 .LLST1
     /tmp/cctOiZNa.s:141    .text:00000000000000a8 .LBB28
     /tmp/cctOiZNa.s:149    .text:00000000000000ac .LBE28
     /tmp/cctOiZNa.s:3391   .debug_loc:000000000000004a .LLST2
     /tmp/cctOiZNa.s:160    .text:00000000000000bc .LBB30
     /tmp/cctOiZNa.s:172    .text:00000000000000c4 .LBE30
     /tmp/cctOiZNa.s:3398   .debug_loc:000000000000006d .LLST3
     /tmp/cctOiZNa.s:189    .text:00000000000000e8 .LBB32
     /tmp/cctOiZNa.s:201    .text:00000000000000f8 .LBE32
     /tmp/cctOiZNa.s:3407   .debug_loc:0000000000000093 .LLST4
     /tmp/cctOiZNa.s:198    .text:00000000000000f8 .LVL18
     /tmp/cctOiZNa.s:202    .text:00000000000000f8 .LBB34
     /tmp/cctOiZNa.s:211    .text:0000000000000104 .LBE34
     /tmp/cctOiZNa.s:3414   .debug_loc:00000000000000b6 .LLST5
     /tmp/cctOiZNa.s:208    .text:0000000000000104 .LVL19
     /tmp/cctOiZNa.s:218    .text:000000000000010c .LBB36
     /tmp/cctOiZNa.s:230    .text:000000000000011c .LBE36
     /tmp/cctOiZNa.s:3421   .debug_loc:00000000000000d9 .LLST6
     /tmp/cctOiZNa.s:227    .text:000000000000011c .LVL21
     /tmp/cctOiZNa.s:231    .text:000000000000011c .LBB38
     /tmp/cctOiZNa.s:240    .text:0000000000000128 .LBE38
     /tmp/cctOiZNa.s:3428   .debug_loc:00000000000000fc .LLST7
     /tmp/cctOiZNa.s:237    .text:0000000000000128 .LVL22
     /tmp/cctOiZNa.s:80     .text:0000000000000050 .LVL3
     /tmp/cctOiZNa.s:84     .text:0000000000000058 .LVL4
     /tmp/cctOiZNa.s:92     .text:000000000000006c .LVL5
     /tmp/cctOiZNa.s:134    .text:00000000000000a4 .LVL9
     /tmp/cctOiZNa.s:155    .text:00000000000000b8 .LVL12
     /tmp/cctOiZNa.s:177    .text:00000000000000d4 .LVL15
     /tmp/cctOiZNa.s:182    .text:00000000000000e0 .LVL16
     /tmp/cctOiZNa.s:244    .text:0000000000000130 .LVL23
     /tmp/cctOiZNa.s:3588   .debug_str:000000000000043f .LASF215
     /tmp/cctOiZNa.s:10     .text:0000000000000000 .LFB59
     /tmp/cctOiZNa.s:36     .text:0000000000000028 .LFE59
     /tmp/cctOiZNa.s:25     .text:0000000000000018 .LVL0
     /tmp/cctOiZNa.s:3564   .debug_str:0000000000000384 .LASF216
     /tmp/cctOiZNa.s:3468   .debug_str:000000000000008e .LASF217
     /tmp/cctOiZNa.s:3640   .debug_str:00000000000005da .LASF237
     /tmp/cctOiZNa.s:3884   .debug_str:0000000000000d83 .LASF218
     /tmp/cctOiZNa.s:3662   .debug_str:000000000000067e .LASF219
     /tmp/cctOiZNa.s:3712   .debug_str:00000000000007ed .LASF238
     /tmp/cctOiZNa.s:3720   .debug_str:0000000000000819 .LASF220
     /tmp/cctOiZNa.s:3898   .debug_str:0000000000000ddb .LASF221
     /tmp/cctOiZNa.s:3760   .debug_str:0000000000000946 .LASF222
     /tmp/cctOiZNa.s:3474   .debug_str:00000000000000aa .LASF223
     /tmp/cctOiZNa.s:3738   .debug_str:00000000000008b1 .LASF224
     /tmp/cctOiZNa.s:3682   .debug_str:0000000000000707 .LASF225
     /tmp/cctOiZNa.s:3736   .debug_str:00000000000008a8 .LASF226
     /tmp/cctOiZNa.s:99     .text:000000000000007c .LVL6
     /tmp/cctOiZNa.s:109    .text:0000000000000084 .LVL7
     /tmp/cctOiZNa.s:123    .text:000000000000008c .LVL8
     /tmp/cctOiZNa.s:140    .text:00000000000000a8 .LVL10
GAS LISTING /tmp/cctOiZNa.s 			page 19


     /tmp/cctOiZNa.s:147    .text:00000000000000ac .LVL11
     /tmp/cctOiZNa.s:159    .text:00000000000000bc .LVL13
     /tmp/cctOiZNa.s:169    .text:00000000000000c4 .LVL14
     /tmp/cctOiZNa.s:188    .text:00000000000000e8 .LVL17
     /tmp/cctOiZNa.s:217    .text:000000000000010c .LVL20
     /tmp/cctOiZNa.s:297    .debug_info:0000000000000000 .Ldebug_info0

UNDEFINED SYMBOLS
_Z8userMainv
_ZN5Riscv14supervisorTrapEv
_ZN9Allocator4initEv
_ZN8kConsole4initEv
_Z13thread_createPP3TCBPFvPvES2_
_ZN3TCB7runningE
_Z15thread_dispatchv
_Z14printStringMojPKc
_ZN5Riscv9kernelEndEPv
_ZdaPv
_ZN9Allocator9_mem_freeEPv
_ZN8kConsole10endConsoleEv
