GAS LISTING /tmp/cceX5oFf.s 			page 1


   1              		.file	"sem.cpp"
   2              		.option pic
   3              		.option norelax
   4              		.text
   5              	.Ltext0:
   6              		.align	2
   8              	_Z41__static_initialization_and_destruction_0ii:
   9              	.LFB77:
  10              		.file 1 "src/sem.cpp"
   1:src/sem.cpp   **** //
   2:src/sem.cpp   **** // Created by os on 5/19/24.
   3:src/sem.cpp   **** //
   4:src/sem.cpp   **** 
   5:src/sem.cpp   **** #include "../h/sem.hpp"
   6:src/sem.cpp   **** 
   7:src/sem.cpp   **** List<TCB> kSemaphore::blockedTimedWait;
   8:src/sem.cpp   **** 
   9:src/sem.cpp   **** int kSemaphore::wait() {
  10:src/sem.cpp   ****     if (destroyed) {return -1;};
  11:src/sem.cpp   ****     if (--val < 0) block();
  12:src/sem.cpp   ****     if (destroyed) {// && (kSemaphore::blocked).head != nullptr
  13:src/sem.cpp   ****         return -1;
  14:src/sem.cpp   ****     }
  15:src/sem.cpp   ****     return 0;
  16:src/sem.cpp   **** }
  17:src/sem.cpp   **** 
  18:src/sem.cpp   **** int kSemaphore::signal() {
  19:src/sem.cpp   ****     if (destroyed) {return -1;}
  20:src/sem.cpp   ****     if (++val <= 0) unblock();
  21:src/sem.cpp   ****     return 0;
  22:src/sem.cpp   **** }
  23:src/sem.cpp   **** 
  24:src/sem.cpp   **** void kSemaphore::block() {    // YILED DISPATCH
  25:src/sem.cpp   ****     blocked.addLast(TCB::running);
  26:src/sem.cpp   ****     TCB::running->blocked = true;
  27:src/sem.cpp   ****     TCB::running->timeSliceCounter = 0;
  28:src/sem.cpp   ****     TCB::running->blockedOnWhichSem = this;
  29:src/sem.cpp   ****     //thread_dispatch();
  30:src/sem.cpp   ****     TCB::dispatch();
  31:src/sem.cpp   **** }
  32:src/sem.cpp   **** 
  33:src/sem.cpp   **** void kSemaphore::unblock() {
  34:src/sem.cpp   ****     TCB* novi = blocked.peekFirst();
  35:src/sem.cpp   ****     novi->blocked = false;
  36:src/sem.cpp   ****     novi->blockedOnWhichSem = nullptr;
  37:src/sem.cpp   ****     TCB::running->timeSliceCounter = 0;
  38:src/sem.cpp   ****     novi->regularlyFinishedWait = true;
  39:src/sem.cpp   ****     blocked.removeFirst();
  40:src/sem.cpp   ****     blockedTimedWait.deleteNodes(novi);
  41:src/sem.cpp   ****     Scheduler::put(novi); // dal treba da poziva dispatch il sta?
  42:src/sem.cpp   **** }
  43:src/sem.cpp   **** 
  44:src/sem.cpp   **** int kSemaphore::openSem(sem_t *handle, unsigned int init) {
  45:src/sem.cpp   ****     if (handle == nullptr) return -1;
  46:src/sem.cpp   ****     *handle = new kSemaphore(init);
  47:src/sem.cpp   ****     if (*handle == nullptr) {
  48:src/sem.cpp   ****         return -1;
GAS LISTING /tmp/cceX5oFf.s 			page 2


  49:src/sem.cpp   ****     }
  50:src/sem.cpp   ****     return 0;
  51:src/sem.cpp   **** }
  52:src/sem.cpp   **** 
  53:src/sem.cpp   **** int kSemaphore::closeSem() {
  54:src/sem.cpp   ****     if (destroyed) return -1;
  55:src/sem.cpp   ****     destroyed = true;
  56:src/sem.cpp   ****     List<TCB>::Elem *elem = (kSemaphore::blocked).head;
  57:src/sem.cpp   ****     List<TCB>::Elem *prev=nullptr;
  58:src/sem.cpp   ****     while (elem) {
  59:src/sem.cpp   ****         elem->data->blocked = false;
  60:src/sem.cpp   ****         elem->data->timeSliceCounter = 0;
  61:src/sem.cpp   ****         blockedTimedWait.deleteNodes(elem->data);
  62:src/sem.cpp   ****         elem->data->blockedOnWhichSem = nullptr;
  63:src/sem.cpp   ****         elem->data->regularlyFinishedWait = false;
  64:src/sem.cpp   ****         Scheduler::put(elem->data);
  65:src/sem.cpp   ****         prev = elem;
  66:src/sem.cpp   ****         elem = elem->next;
  67:src/sem.cpp   ****         delete prev; // bz delete !!!!!!!
  68:src/sem.cpp   ****     }
  69:src/sem.cpp   ****     return 0;
  70:src/sem.cpp   **** }
  71:src/sem.cpp   **** 
  72:src/sem.cpp   **** //BLOCK BEZ BLOKIRANJA
  73:src/sem.cpp   **** int kSemaphore::tryWait() {
  74:src/sem.cpp   ****     if (destroyed) return -1;
  75:src/sem.cpp   ****     if (val > 0) {
  76:src/sem.cpp   ****         --val;
  77:src/sem.cpp   ****     }
  78:src/sem.cpp   ****     if (val <= 0) return 0;
  79:src/sem.cpp   ****     if (val > 0) return 1;
  80:src/sem.cpp   ****     return 0;
  81:src/sem.cpp   **** }
  82:src/sem.cpp   **** 
  83:src/sem.cpp   **** int kSemaphore::timedWait(time_t time) {
  84:src/sem.cpp   ****     if (destroyed) {return -1;};
  85:src/sem.cpp   ****     if (val <= 0) {
  86:src/sem.cpp   ****         blockedTimedWait.addLast(TCB::running);
  87:src/sem.cpp   ****         TCB::running->timeToWaitSem = time;
  88:src/sem.cpp   ****         block();
  89:src/sem.cpp   ****         if (destroyed) {
  90:src/sem.cpp   ****             return -1;
  91:src/sem.cpp   ****         }
  92:src/sem.cpp   ****         if (!(TCB::running->regularlyFinishedWait)) {
  93:src/sem.cpp   ****             return -2;
  94:src/sem.cpp   ****         }
  95:src/sem.cpp   ****         return 0;
  96:src/sem.cpp   ****     }
  97:src/sem.cpp   ****     val--;
  98:src/sem.cpp   ****     return 0;
  99:src/sem.cpp   **** }
  11              		.loc 1 99 1
  12              		.cfi_startproc
  13              	.LVL0:
  14 0000 130101FF 		addi	sp,sp,-16
  15              		.cfi_def_cfa_offset 16
  16 0004 23348100 		sd	s0,8(sp)
GAS LISTING /tmp/cceX5oFf.s 			page 3


  17              		.cfi_offset 8, -8
  18 0008 13040101 		addi	s0,sp,16
  19              		.cfi_def_cfa 8, 0
  20              		.loc 1 99 1 is_stmt 0
  21 000c 93071000 		li	a5,1
  22 0010 6308F500 		beq	a0,a5,.L4
  23              	.L1:
  24 0014 03348100 		ld	s0,8(sp)
  25              		.cfi_remember_state
  26              		.cfi_restore 8
  27              		.cfi_def_cfa 2, 16
  28 0018 13010101 		addi	sp,sp,16
  29              		.cfi_def_cfa_offset 0
  30 001c 67800000 		jr	ra
  31              	.L4:
  32              		.cfi_restore_state
  33              		.loc 1 99 1 discriminator 1
  34 0020 B7070100 		li	a5,65536
  35 0024 9387F7FF 		addi	a5,a5,-1
  36 0028 E396F5FE 		bne	a1,a5,.L1
  37              	.LVL1:
  38              	.LBB46:
  39              	.LBB47:
  40              	.LBB48:
  41              		.file 2 "src/../h/../h/../h/../h/list.hpp"
   1:src/../h/../h/../h/../h/list.hpp **** //
   2:src/../h/../h/../h/../h/list.hpp **** // Created by os on 5/16/24.
   3:src/../h/../h/../h/../h/list.hpp **** //
   4:src/../h/../h/../h/../h/list.hpp **** 
   5:src/../h/../h/../h/../h/list.hpp **** #ifndef PROJECT_BASE_LIST_HPP
   6:src/../h/../h/../h/../h/list.hpp **** #define PROJECT_BASE_LIST_HPP
   7:src/../h/../h/../h/../h/list.hpp **** 
   8:src/../h/../h/../h/../h/list.hpp **** #include "../h/Allocator.hpp"
   9:src/../h/../h/../h/../h/list.hpp **** //Lista preuzeta sa teamsa
  10:src/../h/../h/../h/../h/list.hpp **** 
  11:src/../h/../h/../h/../h/list.hpp **** template<typename T>
  12:src/../h/../h/../h/../h/list.hpp **** class List
  13:src/../h/../h/../h/../h/list.hpp **** {
  14:src/../h/../h/../h/../h/list.hpp **** private:
  15:src/../h/../h/../h/../h/list.hpp ****     struct Elem
  16:src/../h/../h/../h/../h/list.hpp ****     {
  17:src/../h/../h/../h/../h/list.hpp ****         T *data;
  18:src/../h/../h/../h/../h/list.hpp ****         Elem *next;
  19:src/../h/../h/../h/../h/list.hpp **** 
  20:src/../h/../h/../h/../h/list.hpp ****         Elem(T *data, Elem *next) : data(data), next(next) {}
  21:src/../h/../h/../h/../h/list.hpp **** 
  22:src/../h/../h/../h/../h/list.hpp ****         void* operator new(size_t size) {
  23:src/../h/../h/../h/../h/list.hpp ****             return Allocator::_malloc(size);
  24:src/../h/../h/../h/../h/list.hpp ****         }
  25:src/../h/../h/../h/../h/list.hpp **** 
  26:src/../h/../h/../h/../h/list.hpp ****         void operator delete(void* ptr) {
  27:src/../h/../h/../h/../h/list.hpp ****             Allocator::_mem_free(ptr);
  28:src/../h/../h/../h/../h/list.hpp ****         }
  29:src/../h/../h/../h/../h/list.hpp **** 
  30:src/../h/../h/../h/../h/list.hpp ****         void* operator new[](size_t size) {
  31:src/../h/../h/../h/../h/list.hpp ****             return Allocator::_malloc(size);
  32:src/../h/../h/../h/../h/list.hpp ****         }
GAS LISTING /tmp/cceX5oFf.s 			page 4


  33:src/../h/../h/../h/../h/list.hpp **** 
  34:src/../h/../h/../h/../h/list.hpp ****         void operator delete[](void* ptr) {
  35:src/../h/../h/../h/../h/list.hpp ****             Allocator::_mem_free(ptr);
  36:src/../h/../h/../h/../h/list.hpp ****         }
  37:src/../h/../h/../h/../h/list.hpp ****     };
  38:src/../h/../h/../h/../h/list.hpp **** 
  39:src/../h/../h/../h/../h/list.hpp ****     Elem *head, *tail;
  40:src/../h/../h/../h/../h/list.hpp **** 
  41:src/../h/../h/../h/../h/list.hpp **** public:
  42:src/../h/../h/../h/../h/list.hpp ****     friend class TCB;
  43:src/../h/../h/../h/../h/list.hpp ****     friend class Riscv;
  44:src/../h/../h/../h/../h/list.hpp ****     friend class kSemaphore;
  45:src/../h/../h/../h/../h/list.hpp **** 
  46:src/../h/../h/../h/../h/list.hpp ****     List() : head(0), tail(0) {}
  42              		.loc 2 46 29
  43 002c 97070000 		lla	a5,.LANCHOR0
  43      93870700 
  44 0034 23B00700 		sd	zero,0(a5)
  45 0038 23B40700 		sd	zero,8(a5)
  46              	.LVL2:
  47              	.LBE48:
  48              	.LBE47:
  49              	.LBE46:
  50              		.loc 1 99 1
  51 003c 6FF09FFD 		j	.L1
  52              		.cfi_endproc
  53              	.LFE77:
  55              		.align	2
  56              		.globl	_ZN10kSemaphore5blockEv
  58              	_ZN10kSemaphore5blockEv:
  59              	.LFB59:
  24:src/sem.cpp   ****     blocked.addLast(TCB::running);
  60              		.loc 1 24 26 is_stmt 1
  61              		.cfi_startproc
  62              	.LVL3:
  63 0040 130101FE 		addi	sp,sp,-32
  64              		.cfi_def_cfa_offset 32
  65 0044 233C1100 		sd	ra,24(sp)
  66 0048 23388100 		sd	s0,16(sp)
  67 004c 23349100 		sd	s1,8(sp)
  68 0050 23302101 		sd	s2,0(sp)
  69              		.cfi_offset 1, -8
  70              		.cfi_offset 8, -16
  71              		.cfi_offset 9, -24
  72              		.cfi_offset 18, -32
  73 0054 13040102 		addi	s0,sp,32
  74              		.cfi_def_cfa 8, 0
  75 0058 93040500 		mv	s1,a0
  25:src/sem.cpp   ****     TCB::running->blocked = true;
  76              		.loc 1 25 5
  25:src/sem.cpp   ****     TCB::running->blocked = true;
  77              		.loc 1 25 20 is_stmt 0
  78 005c 97070000 		la	a5,_ZN3TCB7runningE
  78      83B70700 
  79 0064 03B90700 		ld	s2,0(a5)
  80              	.LVL4:
  81              	.LBB49:
GAS LISTING /tmp/cceX5oFf.s 			page 5


  82              	.LBB50:
  83              	.LBB51:
  84              	.LBB52:
  23:src/../h/../h/../h/../h/list.hpp ****         }
  85              		.loc 2 23 38
  86 0068 13050001 		li	a0,16
  87              	.LVL5:
  88 006c 97000000 		call	_ZN9Allocator7_mallocEm@plt
  88      E7800000 
  89              	.LVL6:
  90              	.LBE52:
  91              	.LBE51:
  92              	.LBB53:
  93              	.LBB54:
  20:src/../h/../h/../h/../h/list.hpp **** 
  94              		.loc 2 20 58
  95 0074 23302501 		sd	s2,0(a0)
  96 0078 23340500 		sd	zero,8(a0)
  97              	.LVL7:
  98              	.LBE54:
  99              	.LBE53:
  47:src/../h/../h/../h/../h/list.hpp **** 
  48:src/../h/../h/../h/../h/list.hpp ****     List(const List<T> &) = delete;
  49:src/../h/../h/../h/../h/list.hpp **** 
  50:src/../h/../h/../h/../h/list.hpp ****     List<T> &operator=(const List<T> &) = delete;
  51:src/../h/../h/../h/../h/list.hpp **** 
  52:src/../h/../h/../h/../h/list.hpp ****     void addFirst(T *data)
  53:src/../h/../h/../h/../h/list.hpp ****     {
  54:src/../h/../h/../h/../h/list.hpp ****         Elem *elem = new Elem(data, head);
  55:src/../h/../h/../h/../h/list.hpp ****         head = elem;
  56:src/../h/../h/../h/../h/list.hpp ****         if (!tail) { tail = head; }
  57:src/../h/../h/../h/../h/list.hpp ****     }
  58:src/../h/../h/../h/../h/list.hpp **** 
  59:src/../h/../h/../h/../h/list.hpp ****     void addLast(T *data)
  60:src/../h/../h/../h/../h/list.hpp ****     {
  61:src/../h/../h/../h/../h/list.hpp ****         Elem *elem = new Elem(data, 0);
  62:src/../h/../h/../h/../h/list.hpp ****         if (tail)
 100              		.loc 2 62 13
 101 007c 83B70401 		ld	a5,16(s1)
 102              		.loc 2 62 9
 103 0080 63880704 		beqz	a5,.L6
  63:src/../h/../h/../h/../h/list.hpp ****         {
  64:src/../h/../h/../h/../h/list.hpp ****             tail->next = elem;
 104              		.loc 2 64 13
 105 0084 23B4A700 		sd	a0,8(a5)
  65:src/../h/../h/../h/../h/list.hpp ****             tail = elem;
 106              		.loc 2 65 13
 107 0088 23B8A400 		sd	a0,16(s1)
 108              	.L7:
 109              	.LVL8:
 110              	.LBE50:
 111              	.LBE49:
  26:src/sem.cpp   ****     TCB::running->timeSliceCounter = 0;
 112              		.loc 1 26 5 is_stmt 1
  26:src/sem.cpp   ****     TCB::running->timeSliceCounter = 0;
 113              		.loc 1 26 19 is_stmt 0
 114 008c 97070000 		la	a5,_ZN3TCB7runningE
GAS LISTING /tmp/cceX5oFf.s 			page 6


 114      83B70700 
 115 0094 83B70700 		ld	a5,0(a5)
  26:src/sem.cpp   ****     TCB::running->timeSliceCounter = 0;
 116              		.loc 1 26 27
 117 0098 13071000 		li	a4,1
 118 009c A380E704 		sb	a4,65(a5)
  27:src/sem.cpp   ****     TCB::running->blockedOnWhichSem = this;
 119              		.loc 1 27 5 is_stmt 1
  27:src/sem.cpp   ****     TCB::running->blockedOnWhichSem = this;
 120              		.loc 1 27 36 is_stmt 0
 121 00a0 17070000 		la	a4,_ZN3TCB16timeSliceCounterE
 121      03370700 
 122 00a8 23300700 		sd	zero,0(a4)
  28:src/sem.cpp   ****     //thread_dispatch();
 123              		.loc 1 28 5 is_stmt 1
  28:src/sem.cpp   ****     //thread_dispatch();
 124              		.loc 1 28 37 is_stmt 0
 125 00ac 23B89704 		sd	s1,80(a5)
  30:src/sem.cpp   **** }
 126              		.loc 1 30 5 is_stmt 1
  30:src/sem.cpp   **** }
 127              		.loc 1 30 18 is_stmt 0
 128 00b0 97000000 		call	_ZN3TCB8dispatchEv@plt
 128      E7800000 
 129              	.LVL9:
  31:src/sem.cpp   **** 
 130              		.loc 1 31 1
 131 00b8 83308101 		ld	ra,24(sp)
 132              		.cfi_remember_state
 133              		.cfi_restore 1
 134 00bc 03340101 		ld	s0,16(sp)
 135              		.cfi_restore 8
 136              		.cfi_def_cfa 2, 32
 137 00c0 83348100 		ld	s1,8(sp)
 138              		.cfi_restore 9
 139              	.LVL10:
 140 00c4 03390100 		ld	s2,0(sp)
 141              		.cfi_restore 18
 142 00c8 13010102 		addi	sp,sp,32
 143              		.cfi_def_cfa_offset 0
 144 00cc 67800000 		jr	ra
 145              	.LVL11:
 146              	.L6:
 147              		.cfi_restore_state
 148              	.LBB56:
 149              	.LBB55:
  66:src/../h/../h/../h/../h/list.hpp ****         } else
  67:src/../h/../h/../h/../h/list.hpp ****         {
  68:src/../h/../h/../h/../h/list.hpp ****             head = tail = elem;
 150              		.loc 2 68 13
 151 00d0 23B8A400 		sd	a0,16(s1)
 152 00d4 23B4A400 		sd	a0,8(s1)
 153 00d8 6FF05FFB 		j	.L7
 154              	.LBE55:
 155              	.LBE56:
 156              		.cfi_endproc
 157              	.LFE59:
GAS LISTING /tmp/cceX5oFf.s 			page 7


 159              		.align	2
 160              		.globl	_ZN10kSemaphore4waitEv
 162              	_ZN10kSemaphore4waitEv:
 163              	.LFB57:
   9:src/sem.cpp   ****     if (destroyed) {return -1;};
 164              		.loc 1 9 24 is_stmt 1
 165              		.cfi_startproc
 166              	.LVL12:
  10:src/sem.cpp   ****     if (--val < 0) block();
 167              		.loc 1 10 5
  10:src/sem.cpp   ****     if (--val < 0) block();
 168              		.loc 1 10 9 is_stmt 0
 169 00dc 83478501 		lbu	a5,24(a0)
  10:src/sem.cpp   ****     if (--val < 0) block();
 170              		.loc 1 10 5
 171 00e0 639E0704 		bnez	a5,.L12
   9:src/sem.cpp   ****     if (destroyed) {return -1;};
 172              		.loc 1 9 24 discriminator 2
 173 00e4 130101FE 		addi	sp,sp,-32
 174              		.cfi_def_cfa_offset 32
 175 00e8 233C1100 		sd	ra,24(sp)
 176 00ec 23388100 		sd	s0,16(sp)
 177 00f0 23349100 		sd	s1,8(sp)
 178              		.cfi_offset 1, -8
 179              		.cfi_offset 8, -16
 180              		.cfi_offset 9, -24
 181 00f4 13040102 		addi	s0,sp,32
 182              		.cfi_def_cfa 8, 0
 183 00f8 93040500 		mv	s1,a0
  10:src/sem.cpp   ****     if (--val < 0) block();
 184              		.loc 1 10 32 is_stmt 1 discriminator 2
  11:src/sem.cpp   ****     if (destroyed) {// && (kSemaphore::blocked).head != nullptr
 185              		.loc 1 11 5 discriminator 2
  11:src/sem.cpp   ****     if (destroyed) {// && (kSemaphore::blocked).head != nullptr
 186              		.loc 1 11 11 is_stmt 0 discriminator 2
 187 00fc 83270500 		lw	a5,0(a0)
  11:src/sem.cpp   ****     if (destroyed) {// && (kSemaphore::blocked).head != nullptr
 188              		.loc 1 11 9 discriminator 2
 189 0100 9B87F7FF 		addiw	a5,a5,-1
  11:src/sem.cpp   ****     if (destroyed) {// && (kSemaphore::blocked).head != nullptr
 190              		.loc 1 11 15 discriminator 2
 191 0104 2320F500 		sw	a5,0(a0)
  11:src/sem.cpp   ****     if (destroyed) {// && (kSemaphore::blocked).head != nullptr
 192              		.loc 1 11 5 discriminator 2
 193 0108 13970702 		slli	a4,a5,32
 194 010c 63420702 		bltz	a4,.L18
 195              	.LVL13:
 196              	.L11:
  12:src/sem.cpp   ****         return -1;
 197              		.loc 1 12 5 is_stmt 1
  12:src/sem.cpp   ****         return -1;
 198              		.loc 1 12 9 is_stmt 0
 199 0110 83C78401 		lbu	a5,24(s1)
  12:src/sem.cpp   ****         return -1;
 200              		.loc 1 12 5
 201 0114 63980702 		bnez	a5,.L13
  15:src/sem.cpp   **** }
GAS LISTING /tmp/cceX5oFf.s 			page 8


 202              		.loc 1 15 12
 203 0118 13050000 		li	a0,0
 204              	.L10:
  16:src/sem.cpp   **** 
 205              		.loc 1 16 1
 206 011c 83308101 		ld	ra,24(sp)
 207              		.cfi_remember_state
 208              		.cfi_restore 1
 209 0120 03340101 		ld	s0,16(sp)
 210              		.cfi_restore 8
 211              		.cfi_def_cfa 2, 32
 212 0124 83348100 		ld	s1,8(sp)
 213              		.cfi_restore 9
 214              	.LVL14:
 215 0128 13010102 		addi	sp,sp,32
 216              		.cfi_def_cfa_offset 0
 217 012c 67800000 		jr	ra
 218              	.LVL15:
 219              	.L18:
 220              		.cfi_restore_state
  11:src/sem.cpp   ****     if (destroyed) {// && (kSemaphore::blocked).head != nullptr
 221              		.loc 1 11 20 is_stmt 1 discriminator 1
  11:src/sem.cpp   ****     if (destroyed) {// && (kSemaphore::blocked).head != nullptr
 222              		.loc 1 11 25 is_stmt 0 discriminator 1
 223 0130 97000000 		call	_ZN10kSemaphore5blockEv
 223      E7800000 
 224              	.LVL16:
 225 0138 6FF09FFD 		j	.L11
 226              	.LVL17:
 227              	.L12:
 228              		.cfi_def_cfa_register 2
 229              		.cfi_restore 1
 230              		.cfi_restore 8
 231              		.cfi_restore 9
  10:src/sem.cpp   ****     if (--val < 0) block();
 232              		.loc 1 10 29
 233 013c 1305F0FF 		li	a0,-1
 234              	.LVL18:
  16:src/sem.cpp   **** 
 235              		.loc 1 16 1
 236 0140 67800000 		ret
 237              	.LVL19:
 238              	.L13:
 239              		.cfi_def_cfa_register 8
 240              		.cfi_offset 1, -8
 241              		.cfi_offset 8, -16
 242              		.cfi_offset 9, -24
  13:src/sem.cpp   ****     }
 243              		.loc 1 13 17
 244 0144 1305F0FF 		li	a0,-1
 245 0148 6FF05FFD 		j	.L10
 246              		.cfi_endproc
 247              	.LFE57:
 249              		.align	2
 250              		.globl	_ZN10kSemaphore7unblockEv
 252              	_ZN10kSemaphore7unblockEv:
 253              	.LFB60:
GAS LISTING /tmp/cceX5oFf.s 			page 9


  33:src/sem.cpp   ****     TCB* novi = blocked.peekFirst();
 254              		.loc 1 33 28 is_stmt 1
 255              		.cfi_startproc
 256              	.LVL20:
 257 014c 130101FD 		addi	sp,sp,-48
 258              		.cfi_def_cfa_offset 48
 259 0150 23341102 		sd	ra,40(sp)
 260 0154 23308102 		sd	s0,32(sp)
 261 0158 233C9100 		sd	s1,24(sp)
 262 015c 23382101 		sd	s2,16(sp)
 263 0160 23343101 		sd	s3,8(sp)
 264              		.cfi_offset 1, -8
 265              		.cfi_offset 8, -16
 266              		.cfi_offset 9, -24
 267              		.cfi_offset 18, -32
 268              		.cfi_offset 19, -40
 269 0164 13040103 		addi	s0,sp,48
 270              		.cfi_def_cfa 8, 0
 271 0168 93070500 		mv	a5,a0
  34:src/sem.cpp   ****     novi->blocked = false;
 272              		.loc 1 34 5
 273              	.LVL21:
 274              	.LBB69:
 275              	.LBB70:
  69:src/../h/../h/../h/../h/list.hpp ****         }
  70:src/../h/../h/../h/../h/list.hpp ****     }
  71:src/../h/../h/../h/../h/list.hpp **** 
  72:src/../h/../h/../h/../h/list.hpp ****     T *removeFirst()
  73:src/../h/../h/../h/../h/list.hpp ****     {
  74:src/../h/../h/../h/../h/list.hpp ****         if (!head) { return 0; }
  75:src/../h/../h/../h/../h/list.hpp **** 
  76:src/../h/../h/../h/../h/list.hpp ****         Elem *elem = head;
  77:src/../h/../h/../h/../h/list.hpp ****         head = head->next;
  78:src/../h/../h/../h/../h/list.hpp ****         if (!head) { tail = 0; }
  79:src/../h/../h/../h/../h/list.hpp **** 
  80:src/../h/../h/../h/../h/list.hpp ****         T *ret = elem->data;
  81:src/../h/../h/../h/../h/list.hpp ****         delete elem;
  82:src/../h/../h/../h/../h/list.hpp ****         return ret;
  83:src/../h/../h/../h/../h/list.hpp ****     }
  84:src/../h/../h/../h/../h/list.hpp **** 
  85:src/../h/../h/../h/../h/list.hpp ****     T *peekFirst()
  86:src/../h/../h/../h/../h/list.hpp ****     {
  87:src/../h/../h/../h/../h/list.hpp ****         if (!head) { return 0; }
 276              		.loc 2 87 14 is_stmt 0
 277 016c 83348500 		ld	s1,8(a0)
 278              		.loc 2 87 9
 279 0170 63840400 		beqz	s1,.L20
  88:src/../h/../h/../h/../h/list.hpp ****         return head->data;
 280              		.loc 2 88 22
 281 0174 83B40400 		ld	s1,0(s1)
 282              	.L20:
 283              	.LVL22:
 284              	.LBE70:
 285              	.LBE69:
  35:src/sem.cpp   ****     novi->blockedOnWhichSem = nullptr;
 286              		.loc 1 35 5 is_stmt 1
  35:src/sem.cpp   ****     novi->blockedOnWhichSem = nullptr;
GAS LISTING /tmp/cceX5oFf.s 			page 10


 287              		.loc 1 35 19 is_stmt 0
 288 0178 A3800404 		sb	zero,65(s1)
  36:src/sem.cpp   ****     TCB::running->timeSliceCounter = 0;
 289              		.loc 1 36 5 is_stmt 1
  36:src/sem.cpp   ****     TCB::running->timeSliceCounter = 0;
 290              		.loc 1 36 29 is_stmt 0
 291 017c 23B80404 		sd	zero,80(s1)
  37:src/sem.cpp   ****     novi->regularlyFinishedWait = true;
 292              		.loc 1 37 5 is_stmt 1
  37:src/sem.cpp   ****     novi->regularlyFinishedWait = true;
 293              		.loc 1 37 36 is_stmt 0
 294 0180 17070000 		la	a4,_ZN3TCB16timeSliceCounterE
 294      03370700 
 295 0188 23300700 		sd	zero,0(a4)
  38:src/sem.cpp   ****     blocked.removeFirst();
 296              		.loc 1 38 5 is_stmt 1
  38:src/sem.cpp   ****     blocked.removeFirst();
 297              		.loc 1 38 33 is_stmt 0
 298 018c 13071000 		li	a4,1
 299 0190 238CE404 		sb	a4,88(s1)
  39:src/sem.cpp   ****     blockedTimedWait.deleteNodes(novi);
 300              		.loc 1 39 5 is_stmt 1
 301              	.LBB71:
 302              	.LBB72:
  74:src/../h/../h/../h/../h/list.hpp **** 
 303              		.loc 2 74 14 is_stmt 0
 304 0194 03B58700 		ld	a0,8(a5)
 305              	.LVL23:
  74:src/../h/../h/../h/../h/list.hpp **** 
 306              		.loc 2 74 9
 307 0198 630C0500 		beqz	a0,.L21
 308              	.LVL24:
  77:src/../h/../h/../h/../h/list.hpp ****         if (!head) { tail = 0; }
 309              		.loc 2 77 22
 310 019c 03378500 		ld	a4,8(a0)
  77:src/../h/../h/../h/../h/list.hpp ****         if (!head) { tail = 0; }
 311              		.loc 2 77 9
 312 01a0 23B4E700 		sd	a4,8(a5)
  78:src/../h/../h/../h/../h/list.hpp **** 
 313              		.loc 2 78 9
 314 01a4 630E0700 		beqz	a4,.L31
 315              	.L22:
 316              	.LVL25:
 317              	.LBB73:
 318              	.LBB74:
  27:src/../h/../h/../h/../h/list.hpp ****         }
 319              		.loc 2 27 33
 320 01a8 97000000 		call	_ZN9Allocator9_mem_freeEPv@plt
 320      E7800000 
 321              	.LVL26:
 322              	.L21:
 323              	.LBE74:
 324              	.LBE73:
 325              	.LBE72:
 326              	.LBE71:
  40:src/sem.cpp   ****     Scheduler::put(novi); // dal treba da poziva dispatch il sta?
 327              		.loc 1 40 5 is_stmt 1
GAS LISTING /tmp/cceX5oFf.s 			page 11


 328              	.LBB76:
 329              	.LBB77:
  89:src/../h/../h/../h/../h/list.hpp ****     }
  90:src/../h/../h/../h/../h/list.hpp **** 
  91:src/../h/../h/../h/../h/list.hpp ****     T *removeLast()
  92:src/../h/../h/../h/../h/list.hpp ****     {
  93:src/../h/../h/../h/../h/list.hpp ****         if (!head) { return 0; }
  94:src/../h/../h/../h/../h/list.hpp **** 
  95:src/../h/../h/../h/../h/list.hpp ****         Elem *prev = 0;
  96:src/../h/../h/../h/../h/list.hpp ****         for (Elem *curr = head; curr && curr != tail; curr = curr->next)
  97:src/../h/../h/../h/../h/list.hpp ****         {
  98:src/../h/../h/../h/../h/list.hpp ****             prev = curr;
  99:src/../h/../h/../h/../h/list.hpp ****         }
 100:src/../h/../h/../h/../h/list.hpp **** 
 101:src/../h/../h/../h/../h/list.hpp ****         Elem *elem = tail;
 102:src/../h/../h/../h/../h/list.hpp ****         if (prev) { prev->next = 0; }
 103:src/../h/../h/../h/../h/list.hpp ****         else { head = 0; }
 104:src/../h/../h/../h/../h/list.hpp ****         tail = prev;
 105:src/../h/../h/../h/../h/list.hpp **** 
 106:src/../h/../h/../h/../h/list.hpp ****         T *ret = elem->data;
 107:src/../h/../h/../h/../h/list.hpp ****         delete elem;
 108:src/../h/../h/../h/../h/list.hpp ****         return ret;
 109:src/../h/../h/../h/../h/list.hpp ****     }
 110:src/../h/../h/../h/../h/list.hpp **** 
 111:src/../h/../h/../h/../h/list.hpp ****     T *peekLast()
 112:src/../h/../h/../h/../h/list.hpp ****     {
 113:src/../h/../h/../h/../h/list.hpp ****         if (!tail) { return 0; }
 114:src/../h/../h/../h/../h/list.hpp ****         return tail->data;
 115:src/../h/../h/../h/../h/list.hpp ****     }
 116:src/../h/../h/../h/../h/list.hpp **** 
 117:src/../h/../h/../h/../h/list.hpp ****     void deleteElement(Elem *elementToDelete)
 118:src/../h/../h/../h/../h/list.hpp ****     {
 119:src/../h/../h/../h/../h/list.hpp ****         if (!elementToDelete) { return; }
 120:src/../h/../h/../h/../h/list.hpp **** 
 121:src/../h/../h/../h/../h/list.hpp ****         if (head == elementToDelete)
 122:src/../h/../h/../h/../h/list.hpp ****         {
 123:src/../h/../h/../h/../h/list.hpp ****             head = head->next;
 124:src/../h/../h/../h/../h/list.hpp ****             if (!head) { tail = nullptr; }
 125:src/../h/../h/../h/../h/list.hpp ****             delete elementToDelete;
 126:src/../h/../h/../h/../h/list.hpp ****             return;
 127:src/../h/../h/../h/../h/list.hpp ****         }
 128:src/../h/../h/../h/../h/list.hpp **** 
 129:src/../h/../h/../h/../h/list.hpp ****         Elem *prev = nullptr;
 130:src/../h/../h/../h/../h/list.hpp ****         for (Elem *curr = head; curr; curr = curr->next)
 131:src/../h/../h/../h/../h/list.hpp ****         {
 132:src/../h/../h/../h/../h/list.hpp ****             if (curr == elementToDelete)
 133:src/../h/../h/../h/../h/list.hpp ****             {
 134:src/../h/../h/../h/../h/list.hpp ****                 prev->next = curr->next;
 135:src/../h/../h/../h/../h/list.hpp ****                 if (curr == tail) { tail = prev; }
 136:src/../h/../h/../h/../h/list.hpp ****                 delete elementToDelete;
 137:src/../h/../h/../h/../h/list.hpp ****                 return;
 138:src/../h/../h/../h/../h/list.hpp ****             }
 139:src/../h/../h/../h/../h/list.hpp ****             prev = curr;
 140:src/../h/../h/../h/../h/list.hpp ****         }
 141:src/../h/../h/../h/../h/list.hpp ****     }
 142:src/../h/../h/../h/../h/list.hpp **** 
 143:src/../h/../h/../h/../h/list.hpp ****     void deleteNodes(T* objectToDelete) {
GAS LISTING /tmp/cceX5oFf.s 			page 12


 144:src/../h/../h/../h/../h/list.hpp ****         Elem* current = head;
 330              		.loc 2 144 15 is_stmt 0
 331 01b0 17050000 		ld	a0,.LANCHOR0
 331      03350500 
 332              	.LVL27:
 145:src/../h/../h/../h/../h/list.hpp ****         Elem* previous = nullptr;
 333              		.loc 2 145 15
 334 01b8 13090000 		li	s2,0
 335 01bc 6F008003 		j	.L23
 336              	.LVL28:
 337              	.L31:
 338              	.LBE77:
 339              	.LBE76:
 340              	.LBB85:
 341              	.LBB75:
  78:src/../h/../h/../h/../h/list.hpp **** 
 342              		.loc 2 78 22
 343 01c0 23B80700 		sd	zero,16(a5)
 344 01c4 6FF05FFE 		j	.L22
 345              	.LVL29:
 346              	.L34:
 347              	.LBE75:
 348              	.LBE85:
 349              	.LBB86:
 350              	.LBB84:
 351              	.LBB78:
 352              	.LBB79:
 146:src/../h/../h/../h/../h/list.hpp **** 
 147:src/../h/../h/../h/../h/list.hpp ****         while (current != nullptr) {
 148:src/../h/../h/../h/../h/list.hpp ****             if (current->data == objectToDelete) {
 149:src/../h/../h/../h/../h/list.hpp ****                 Elem* temp = current;
 150:src/../h/../h/../h/../h/list.hpp ****                 if (previous == nullptr) {
 353              		.loc 2 150 17
 354 01c8 63020904 		beqz	s2,.L32
 151:src/../h/../h/../h/../h/list.hpp ****                     head = current->next;
 152:src/../h/../h/../h/../h/list.hpp ****                 } else {
 153:src/../h/../h/../h/../h/list.hpp ****                     previous->next = current->next;
 355              		.loc 2 153 47
 356 01cc 83378500 		ld	a5,8(a0)
 357              		.loc 2 153 21
 358 01d0 2334F900 		sd	a5,8(s2)
 359              	.L27:
 154:src/../h/../h/../h/../h/list.hpp ****                 }
 155:src/../h/../h/../h/../h/list.hpp ****                 if (current == tail) {
 360              		.loc 2 155 32
 361 01d4 97070000 		ld	a5,.LANCHOR0+8
 361      83B70700 
 362              		.loc 2 155 17
 363 01dc 6300F504 		beq	a0,a5,.L33
 364              	.L28:
 156:src/../h/../h/../h/../h/list.hpp ****                     tail = previous;
 157:src/../h/../h/../h/../h/list.hpp ****                 }
 158:src/../h/../h/../h/../h/list.hpp ****                 current = current->next;
 365              		.loc 2 158 17
 366 01e0 83398500 		ld	s3,8(a0)
 367              	.LVL30:
 159:src/../h/../h/../h/../h/list.hpp ****                 delete temp;
GAS LISTING /tmp/cceX5oFf.s 			page 13


 368              		.loc 2 159 17
 369 01e4 63060500 		beqz	a0,.L29
 370              	.LVL31:
 371              	.LBB80:
 372              	.LBB81:
  27:src/../h/../h/../h/../h/list.hpp ****         }
 373              		.loc 2 27 33
 374 01e8 97000000 		call	_ZN9Allocator9_mem_freeEPv@plt
 374      E7800000 
 375              	.LVL32:
 376              	.L29:
 377              	.LBE81:
 378              	.LBE80:
 379              	.LBE79:
 380              	.LBE78:
 145:src/../h/../h/../h/../h/list.hpp **** 
 381              		.loc 2 145 15
 382 01f0 13850900 		mv	a0,s3
 383              	.LVL33:
 384              	.L23:
 147:src/../h/../h/../h/../h/list.hpp ****             if (current->data == objectToDelete) {
 385              		.loc 2 147 24 is_stmt 1
 386 01f4 630A0502 		beqz	a0,.L24
 387              	.LBB83:
 148:src/../h/../h/../h/../h/list.hpp ****                 Elem* temp = current;
 388              		.loc 2 148 26 is_stmt 0
 389 01f8 83370500 		ld	a5,0(a0)
 148:src/../h/../h/../h/../h/list.hpp ****                 Elem* temp = current;
 390              		.loc 2 148 13
 391 01fc E386F4FC 		beq	s1,a5,.L34
 392              	.LVL34:
 160:src/../h/../h/../h/../h/list.hpp ****             } else {
 161:src/../h/../h/../h/../h/list.hpp ****                 previous = current;
 162:src/../h/../h/../h/../h/list.hpp ****                 current = current->next;
 393              		.loc 2 162 17
 394 0200 83398500 		ld	s3,8(a0)
 395              	.LVL35:
 161:src/../h/../h/../h/../h/list.hpp ****                 current = current->next;
 396              		.loc 2 161 17
 397 0204 13090500 		mv	s2,a0
 398 0208 6FF09FFE 		j	.L29
 399              	.LVL36:
 400              	.L32:
 401              	.LBB82:
 151:src/../h/../h/../h/../h/list.hpp ****                 } else {
 402              		.loc 2 151 37
 403 020c 83378500 		ld	a5,8(a0)
 151:src/../h/../h/../h/../h/list.hpp ****                 } else {
 404              		.loc 2 151 21
 405 0210 17070000 		sd	a5,.LANCHOR0,a4
 405      2330F700 
 406 0218 6FF0DFFB 		j	.L27
 407              	.L33:
 156:src/../h/../h/../h/../h/list.hpp ****                 }
 408              		.loc 2 156 21
 409 021c 97070000 		sd	s2,.LANCHOR0+8,a5
 409      23B02701 
GAS LISTING /tmp/cceX5oFf.s 			page 14


 410 0224 6FF0DFFB 		j	.L28
 411              	.LVL37:
 412              	.L24:
 413              	.LBE82:
 414              	.LBE83:
 415              	.LBE84:
 416              	.LBE86:
  41:src/sem.cpp   **** }
 417              		.loc 1 41 5 is_stmt 1
  41:src/sem.cpp   **** }
 418              		.loc 1 41 19 is_stmt 0
 419 0228 13850400 		mv	a0,s1
 420 022c 97000000 		call	_ZN9Scheduler3putEP3TCB@plt
 420      E7800000 
 421              	.LVL38:
  42:src/sem.cpp   **** 
 422              		.loc 1 42 1
 423 0234 83308102 		ld	ra,40(sp)
 424              		.cfi_restore 1
 425 0238 03340102 		ld	s0,32(sp)
 426              		.cfi_restore 8
 427              		.cfi_def_cfa 2, 48
 428 023c 83348101 		ld	s1,24(sp)
 429              		.cfi_restore 9
 430              	.LVL39:
 431 0240 03390101 		ld	s2,16(sp)
 432              		.cfi_restore 18
 433 0244 83398100 		ld	s3,8(sp)
 434              		.cfi_restore 19
 435 0248 13010103 		addi	sp,sp,48
 436              		.cfi_def_cfa_offset 0
 437 024c 67800000 		jr	ra
 438              		.cfi_endproc
 439              	.LFE60:
 441              		.align	2
 442              		.globl	_ZN10kSemaphore6signalEv
 444              	_ZN10kSemaphore6signalEv:
 445              	.LFB58:
  18:src/sem.cpp   ****     if (destroyed) {return -1;}
 446              		.loc 1 18 26 is_stmt 1
 447              		.cfi_startproc
 448              	.LVL40:
  19:src/sem.cpp   ****     if (++val <= 0) unblock();
 449              		.loc 1 19 5
  19:src/sem.cpp   ****     if (++val <= 0) unblock();
 450              		.loc 1 19 9 is_stmt 0
 451 0250 83478501 		lbu	a5,24(a0)
  19:src/sem.cpp   ****     if (++val <= 0) unblock();
 452              		.loc 1 19 5
 453 0254 63960704 		bnez	a5,.L37
  20:src/sem.cpp   ****     return 0;
 454              		.loc 1 20 5 is_stmt 1
  20:src/sem.cpp   ****     return 0;
 455              		.loc 1 20 11 is_stmt 0
 456 0258 83270500 		lw	a5,0(a0)
  20:src/sem.cpp   ****     return 0;
 457              		.loc 1 20 9
GAS LISTING /tmp/cceX5oFf.s 			page 15


 458 025c 9B871700 		addiw	a5,a5,1
 459 0260 1B870700 		sext.w	a4,a5
  20:src/sem.cpp   ****     return 0;
 460              		.loc 1 20 15
 461 0264 2320F500 		sw	a5,0(a0)
  20:src/sem.cpp   ****     return 0;
 462              		.loc 1 20 5
 463 0268 6356E000 		blez	a4,.L43
  21:src/sem.cpp   **** }
 464              		.loc 1 21 12
 465 026c 13050000 		li	a0,0
 466              	.LVL41:
  22:src/sem.cpp   **** 
 467              		.loc 1 22 1
 468 0270 67800000 		ret
 469              	.LVL42:
 470              	.L43:
  18:src/sem.cpp   ****     if (destroyed) {return -1;}
 471              		.loc 1 18 26 discriminator 1
 472 0274 130101FF 		addi	sp,sp,-16
 473              		.cfi_def_cfa_offset 16
 474 0278 23341100 		sd	ra,8(sp)
 475 027c 23308100 		sd	s0,0(sp)
 476              		.cfi_offset 1, -8
 477              		.cfi_offset 8, -16
 478 0280 13040101 		addi	s0,sp,16
 479              		.cfi_def_cfa 8, 0
  20:src/sem.cpp   ****     return 0;
 480              		.loc 1 20 21 is_stmt 1 discriminator 1
  20:src/sem.cpp   ****     return 0;
 481              		.loc 1 20 28 is_stmt 0 discriminator 1
 482 0284 97000000 		call	_ZN10kSemaphore7unblockEv
 482      E7800000 
 483              	.LVL43:
  21:src/sem.cpp   **** }
 484              		.loc 1 21 12 discriminator 1
 485 028c 13050000 		li	a0,0
  22:src/sem.cpp   **** 
 486              		.loc 1 22 1 discriminator 1
 487 0290 83308100 		ld	ra,8(sp)
 488              		.cfi_restore 1
 489 0294 03340100 		ld	s0,0(sp)
 490              		.cfi_restore 8
 491              		.cfi_def_cfa 2, 16
 492 0298 13010101 		addi	sp,sp,16
 493              		.cfi_def_cfa_offset 0
 494 029c 67800000 		jr	ra
 495              	.LVL44:
 496              	.L37:
  19:src/sem.cpp   ****     if (++val <= 0) unblock();
 497              		.loc 1 19 29
 498 02a0 1305F0FF 		li	a0,-1
 499              	.LVL45:
 500 02a4 67800000 		ret
 501              		.cfi_endproc
 502              	.LFE58:
 504              		.align	2
GAS LISTING /tmp/cceX5oFf.s 			page 16


 505              		.globl	_ZN10kSemaphore7openSemEPPS_j
 507              	_ZN10kSemaphore7openSemEPPS_j:
 508              	.LFB61:
  44:src/sem.cpp   ****     if (handle == nullptr) return -1;
 509              		.loc 1 44 59 is_stmt 1
 510              		.cfi_startproc
 511              	.LVL46:
  45:src/sem.cpp   ****     *handle = new kSemaphore(init);
 512              		.loc 1 45 5
 513 02a8 63020506 		beqz	a0,.L46
  44:src/sem.cpp   ****     if (handle == nullptr) return -1;
 514              		.loc 1 44 59 is_stmt 0
 515 02ac 130101FE 		addi	sp,sp,-32
 516              		.cfi_def_cfa_offset 32
 517 02b0 233C1100 		sd	ra,24(sp)
 518 02b4 23388100 		sd	s0,16(sp)
 519 02b8 23349100 		sd	s1,8(sp)
 520 02bc 23302101 		sd	s2,0(sp)
 521              		.cfi_offset 1, -8
 522              		.cfi_offset 8, -16
 523              		.cfi_offset 9, -24
 524              		.cfi_offset 18, -32
 525 02c0 13040102 		addi	s0,sp,32
 526              		.cfi_def_cfa 8, 0
 527 02c4 93040500 		mv	s1,a0
 528 02c8 13890500 		mv	s2,a1
  46:src/sem.cpp   ****     if (*handle == nullptr) {
 529              		.loc 1 46 5 is_stmt 1
 530              	.LVL47:
 531              	.LBB87:
 532              	.LBB88:
 533              		.file 3 "src/../h/sem.hpp"
   1:src/../h/sem.hpp **** //
   2:src/../h/sem.hpp **** // Created by os on 5/19/24.
   3:src/../h/sem.hpp **** //
   4:src/../h/sem.hpp **** 
   5:src/../h/sem.hpp **** #ifndef PROJECT_BASE_SEM_HPP
   6:src/../h/sem.hpp **** #define PROJECT_BASE_SEM_HPP
   7:src/../h/sem.hpp **** 
   8:src/../h/sem.hpp **** #include "../h/tcb.hpp"
   9:src/../h/sem.hpp **** #include "../h/list.hpp"
  10:src/../h/sem.hpp **** #include "../h/syscall_c.h"
  11:src/../h/sem.hpp **** #include "tipovi.hpp"
  12:src/../h/sem.hpp **** #include "Allocator.hpp"
  13:src/../h/sem.hpp **** 
  14:src/../h/sem.hpp **** class kSemaphore {
  15:src/../h/sem.hpp **** public:
  16:src/../h/sem.hpp ****     kSemaphore(uint64 init = 1): val(init) {}
  17:src/../h/sem.hpp **** 
  18:src/../h/sem.hpp ****     int closeSem();
  19:src/../h/sem.hpp ****     int tryWait();
  20:src/../h/sem.hpp ****     int timedWait(time_t time);
  21:src/../h/sem.hpp **** 
  22:src/../h/sem.hpp ****     int wait();
  23:src/../h/sem.hpp ****     int signal();
  24:src/../h/sem.hpp **** 
  25:src/../h/sem.hpp ****     int value() const{return val;}
GAS LISTING /tmp/cceX5oFf.s 			page 17


  26:src/../h/sem.hpp **** 
  27:src/../h/sem.hpp ****     static int openSem(sem_t *handle, unsigned init);
  28:src/../h/sem.hpp **** 
  29:src/../h/sem.hpp ****     friend class Riscv;
  30:src/../h/sem.hpp **** 
  31:src/../h/sem.hpp ****     static List<TCB> blockedTimedWait;
  32:src/../h/sem.hpp **** 
  33:src/../h/sem.hpp ****     void* operator new(size_t size) {
  34:src/../h/sem.hpp ****         return Allocator::_malloc(size);
 534              		.loc 3 34 9
 535              		.loc 3 34 34 is_stmt 0
 536 02cc 13050002 		li	a0,32
 537              	.LVL48:
 538 02d0 97000000 		call	_ZN9Allocator7_mallocEm@plt
 538      E7800000 
 539              	.LVL49:
 540              	.LBE88:
 541              	.LBE87:
 542              	.LBB89:
 543              	.LBB90:
  16:src/../h/sem.hpp **** 
 544              		.loc 3 16 42
 545 02d8 23202501 		sw	s2,0(a0)
 546              	.LVL50:
 547              	.LBB91:
 548              	.LBB92:
  46:src/../h/../h/../h/../h/list.hpp **** 
 549              		.loc 2 46 29
 550 02dc 23340500 		sd	zero,8(a0)
 551 02e0 23380500 		sd	zero,16(a0)
 552              	.LVL51:
 553              	.LBE92:
 554              	.LBE91:
  16:src/../h/sem.hpp **** 
 555              		.loc 3 16 42
 556 02e4 230C0500 		sb	zero,24(a0)
 557              	.LVL52:
 558              	.LBE90:
 559              	.LBE89:
  46:src/sem.cpp   ****     if (*handle == nullptr) {
 560              		.loc 1 46 13
 561 02e8 23B0A400 		sd	a0,0(s1)
  47:src/sem.cpp   ****         return -1;
 562              		.loc 1 47 5 is_stmt 1
 563 02ec 63040502 		beqz	a0,.L47
  50:src/sem.cpp   **** }
 564              		.loc 1 50 12 is_stmt 0
 565 02f0 13050000 		li	a0,0
 566              	.L45:
  51:src/sem.cpp   **** 
 567              		.loc 1 51 1
 568 02f4 83308101 		ld	ra,24(sp)
 569              		.cfi_restore 1
 570 02f8 03340101 		ld	s0,16(sp)
 571              		.cfi_restore 8
 572              		.cfi_def_cfa 2, 32
 573 02fc 83348100 		ld	s1,8(sp)
GAS LISTING /tmp/cceX5oFf.s 			page 18


 574              		.cfi_restore 9
 575              	.LVL53:
 576 0300 03390100 		ld	s2,0(sp)
 577              		.cfi_restore 18
 578 0304 13010102 		addi	sp,sp,32
 579              		.cfi_def_cfa_offset 0
 580 0308 67800000 		jr	ra
 581              	.LVL54:
 582              	.L46:
  45:src/sem.cpp   ****     *handle = new kSemaphore(init);
 583              		.loc 1 45 36
 584 030c 1305F0FF 		li	a0,-1
 585              	.LVL55:
  51:src/sem.cpp   **** 
 586              		.loc 1 51 1
 587 0310 67800000 		ret
 588              	.LVL56:
 589              	.L47:
 590              		.cfi_def_cfa_register 8
 591              		.cfi_offset 1, -8
 592              		.cfi_offset 8, -16
 593              		.cfi_offset 9, -24
 594              		.cfi_offset 18, -32
  48:src/sem.cpp   ****     }
 595              		.loc 1 48 17
 596 0314 1305F0FF 		li	a0,-1
 597 0318 6FF0DFFD 		j	.L45
 598              		.cfi_endproc
 599              	.LFE61:
 601              		.align	2
 602              		.globl	_ZN10kSemaphore8closeSemEv
 604              	_ZN10kSemaphore8closeSemEv:
 605              	.LFB62:
  53:src/sem.cpp   ****     if (destroyed) return -1;
 606              		.loc 1 53 28 is_stmt 1
 607              		.cfi_startproc
 608              	.LVL57:
  54:src/sem.cpp   ****     destroyed = true;
 609              		.loc 1 54 5
  54:src/sem.cpp   ****     destroyed = true;
 610              		.loc 1 54 9 is_stmt 0
 611 031c 83478501 		lbu	a5,24(a0)
  54:src/sem.cpp   ****     destroyed = true;
 612              		.loc 1 54 5
 613 0320 639A070E 		bnez	a5,.L63
  53:src/sem.cpp   ****     if (destroyed) return -1;
 614              		.loc 1 53 28
 615 0324 130101FD 		addi	sp,sp,-48
 616              		.cfi_def_cfa_offset 48
 617 0328 23341102 		sd	ra,40(sp)
 618 032c 23308102 		sd	s0,32(sp)
 619 0330 233C9100 		sd	s1,24(sp)
 620 0334 23382101 		sd	s2,16(sp)
 621 0338 23343101 		sd	s3,8(sp)
 622 033c 23304101 		sd	s4,0(sp)
 623              		.cfi_offset 1, -8
 624              		.cfi_offset 8, -16
GAS LISTING /tmp/cceX5oFf.s 			page 19


 625              		.cfi_offset 9, -24
 626              		.cfi_offset 18, -32
 627              		.cfi_offset 19, -40
 628              		.cfi_offset 20, -48
 629 0340 13040103 		addi	s0,sp,48
 630              		.cfi_def_cfa 8, 0
  55:src/sem.cpp   ****     List<TCB>::Elem *elem = (kSemaphore::blocked).head;
 631              		.loc 1 55 5 is_stmt 1
  55:src/sem.cpp   ****     List<TCB>::Elem *elem = (kSemaphore::blocked).head;
 632              		.loc 1 55 15 is_stmt 0
 633 0344 93071000 		li	a5,1
 634 0348 230CF500 		sb	a5,24(a0)
  56:src/sem.cpp   ****     List<TCB>::Elem *prev=nullptr;
 635              		.loc 1 56 5 is_stmt 1
  56:src/sem.cpp   ****     List<TCB>::Elem *prev=nullptr;
 636              		.loc 1 56 22 is_stmt 0
 637 034c 83348500 		ld	s1,8(a0)
 638              	.LVL58:
  57:src/sem.cpp   ****     while (elem) {
 639              		.loc 1 57 5 is_stmt 1
 640 0350 6F008009 		j	.L54
 641              	.LVL59:
 642              	.L71:
 643              	.LBB101:
 644              	.LBB102:
 645              	.LBB103:
 646              	.LBB104:
 150:src/../h/../h/../h/../h/list.hpp ****                     head = current->next;
 647              		.loc 2 150 17 is_stmt 0
 648 0354 63020904 		beqz	s2,.L69
 153:src/../h/../h/../h/../h/list.hpp ****                 }
 649              		.loc 2 153 47
 650 0358 83378500 		ld	a5,8(a0)
 153:src/../h/../h/../h/../h/list.hpp ****                 }
 651              		.loc 2 153 21
 652 035c 2334F900 		sd	a5,8(s2)
 653              	.L59:
 155:src/../h/../h/../h/../h/list.hpp ****                     tail = previous;
 654              		.loc 2 155 32
 655 0360 97070000 		ld	a5,.LANCHOR0+8
 655      83B70700 
 155:src/../h/../h/../h/../h/list.hpp ****                     tail = previous;
 656              		.loc 2 155 17
 657 0368 6300F504 		beq	a0,a5,.L70
 658              	.L60:
 158:src/../h/../h/../h/../h/list.hpp ****                 delete temp;
 659              		.loc 2 158 17
 660 036c 83398500 		ld	s3,8(a0)
 661              	.LVL60:
 159:src/../h/../h/../h/../h/list.hpp ****             } else {
 662              		.loc 2 159 17
 663 0370 63060500 		beqz	a0,.L61
 664              	.LVL61:
 665              	.LBB105:
 666              	.LBB106:
  27:src/../h/../h/../h/../h/list.hpp ****         }
 667              		.loc 2 27 33
GAS LISTING /tmp/cceX5oFf.s 			page 20


 668 0374 97000000 		call	_ZN9Allocator9_mem_freeEPv@plt
 668      E7800000 
 669              	.LVL62:
 670              	.L61:
 671              	.LBE106:
 672              	.LBE105:
 673              	.LBE104:
 674              	.LBE103:
 145:src/../h/../h/../h/../h/list.hpp **** 
 675              		.loc 2 145 15
 676 037c 13850900 		mv	a0,s3
 677              	.LVL63:
 678              	.L55:
 147:src/../h/../h/../h/../h/list.hpp ****             if (current->data == objectToDelete) {
 679              		.loc 2 147 24 is_stmt 1
 680 0380 630A0502 		beqz	a0,.L56
 681              	.LBB108:
 148:src/../h/../h/../h/../h/list.hpp ****                 Elem* temp = current;
 682              		.loc 2 148 26 is_stmt 0
 683 0384 83370500 		ld	a5,0(a0)
 148:src/../h/../h/../h/../h/list.hpp ****                 Elem* temp = current;
 684              		.loc 2 148 13
 685 0388 E306FAFC 		beq	s4,a5,.L71
 686              	.LVL64:
 687              		.loc 2 162 17
 688 038c 83398500 		ld	s3,8(a0)
 689              	.LVL65:
 161:src/../h/../h/../h/../h/list.hpp ****                 current = current->next;
 690              		.loc 2 161 17
 691 0390 13090500 		mv	s2,a0
 692 0394 6FF09FFE 		j	.L61
 693              	.LVL66:
 694              	.L69:
 695              	.LBB107:
 151:src/../h/../h/../h/../h/list.hpp ****                 } else {
 696              		.loc 2 151 37
 697 0398 83378500 		ld	a5,8(a0)
 151:src/../h/../h/../h/../h/list.hpp ****                 } else {
 698              		.loc 2 151 21
 699 039c 17070000 		sd	a5,.LANCHOR0,a4
 699      2330F700 
 700 03a4 6FF0DFFB 		j	.L59
 701              	.L70:
 156:src/../h/../h/../h/../h/list.hpp ****                 }
 702              		.loc 2 156 21
 703 03a8 97070000 		sd	s2,.LANCHOR0+8,a5
 703      23B02701 
 704 03b0 6FF0DFFB 		j	.L60
 705              	.LVL67:
 706              	.L56:
 707              	.LBE107:
 708              	.LBE108:
 709              	.LBE102:
 710              	.LBE101:
  62:src/sem.cpp   ****         elem->data->regularlyFinishedWait = false;
 711              		.loc 1 62 9 is_stmt 1
  62:src/sem.cpp   ****         elem->data->regularlyFinishedWait = false;
GAS LISTING /tmp/cceX5oFf.s 			page 21


 712              		.loc 1 62 15 is_stmt 0
 713 03b4 83B70400 		ld	a5,0(s1)
  62:src/sem.cpp   ****         elem->data->regularlyFinishedWait = false;
 714              		.loc 1 62 39
 715 03b8 23B80704 		sd	zero,80(a5)
  63:src/sem.cpp   ****         Scheduler::put(elem->data);
 716              		.loc 1 63 9 is_stmt 1
  63:src/sem.cpp   ****         Scheduler::put(elem->data);
 717              		.loc 1 63 15 is_stmt 0
 718 03bc 83B70400 		ld	a5,0(s1)
  63:src/sem.cpp   ****         Scheduler::put(elem->data);
 719              		.loc 1 63 43
 720 03c0 238C0704 		sb	zero,88(a5)
  64:src/sem.cpp   ****         prev = elem;
 721              		.loc 1 64 9 is_stmt 1
  64:src/sem.cpp   ****         prev = elem;
 722              		.loc 1 64 23 is_stmt 0
 723 03c4 03B50400 		ld	a0,0(s1)
 724 03c8 97000000 		call	_ZN9Scheduler3putEP3TCB@plt
 724      E7800000 
 725              	.LVL68:
  65:src/sem.cpp   ****         elem = elem->next;
 726              		.loc 1 65 9 is_stmt 1
  66:src/sem.cpp   ****         delete prev; // bz delete !!!!!!!
 727              		.loc 1 66 9
  66:src/sem.cpp   ****         delete prev; // bz delete !!!!!!!
 728              		.loc 1 66 14 is_stmt 0
 729 03d0 03B98400 		ld	s2,8(s1)
 730              	.LVL69:
  67:src/sem.cpp   ****     }
 731              		.loc 1 67 9 is_stmt 1
  67:src/sem.cpp   ****     }
 732              		.loc 1 67 20 is_stmt 0
 733 03d4 63880400 		beqz	s1,.L62
 734              	.LVL70:
 735              	.LBB110:
 736              	.LBB111:
  27:src/../h/../h/../h/../h/list.hpp ****         }
 737              		.loc 2 27 33 discriminator 1
 738 03d8 13850400 		mv	a0,s1
 739 03dc 97000000 		call	_ZN9Allocator9_mem_freeEPv@plt
 739      E7800000 
 740              	.LVL71:
 741              	.L62:
 742              	.LBE111:
 743              	.LBE110:
  53:src/sem.cpp   ****     if (destroyed) return -1;
 744              		.loc 1 53 28
 745 03e4 93040900 		mv	s1,s2
 746              	.LVL72:
 747              	.L54:
  58:src/sem.cpp   ****         elem->data->blocked = false;
 748              		.loc 1 58 5 is_stmt 1
  58:src/sem.cpp   ****         elem->data->blocked = false;
 749              		.loc 1 58 12
 750 03e8 638A0402 		beqz	s1,.L64
  59:src/sem.cpp   ****         elem->data->timeSliceCounter = 0;
GAS LISTING /tmp/cceX5oFf.s 			page 22


 751              		.loc 1 59 9
  59:src/sem.cpp   ****         elem->data->timeSliceCounter = 0;
 752              		.loc 1 59 15 is_stmt 0
 753 03ec 83B70400 		ld	a5,0(s1)
  59:src/sem.cpp   ****         elem->data->timeSliceCounter = 0;
 754              		.loc 1 59 29
 755 03f0 A3800704 		sb	zero,65(a5)
  60:src/sem.cpp   ****         blockedTimedWait.deleteNodes(elem->data);
 756              		.loc 1 60 9 is_stmt 1
  60:src/sem.cpp   ****         blockedTimedWait.deleteNodes(elem->data);
 757              		.loc 1 60 38 is_stmt 0
 758 03f4 97070000 		la	a5,_ZN3TCB16timeSliceCounterE
 758      83B70700 
 759 03fc 23B00700 		sd	zero,0(a5)
  61:src/sem.cpp   ****         elem->data->blockedOnWhichSem = nullptr;
 760              		.loc 1 61 9 is_stmt 1
  61:src/sem.cpp   ****         elem->data->blockedOnWhichSem = nullptr;
 761              		.loc 1 61 37 is_stmt 0
 762 0400 03BA0400 		ld	s4,0(s1)
 763              	.LVL73:
 764              	.LBB112:
 765              	.LBB109:
 144:src/../h/../h/../h/../h/list.hpp ****         Elem* previous = nullptr;
 766              		.loc 2 144 15
 767 0404 17050000 		ld	a0,.LANCHOR0
 767      03350500 
 768              	.LVL74:
 145:src/../h/../h/../h/../h/list.hpp **** 
 769              		.loc 2 145 15
 770 040c 13090000 		li	s2,0
 771 0410 6FF01FF7 		j	.L55
 772              	.LVL75:
 773              	.L63:
 774              		.cfi_def_cfa_register 2
 775              		.cfi_restore 1
 776              		.cfi_restore 8
 777              		.cfi_restore 9
 778              		.cfi_restore 18
 779              		.cfi_restore 19
 780              		.cfi_restore 20
 781              	.LBE109:
 782              	.LBE112:
  54:src/sem.cpp   ****     destroyed = true;
 783              		.loc 1 54 28
 784 0414 1305F0FF 		li	a0,-1
 785              	.LVL76:
  70:src/sem.cpp   **** 
 786              		.loc 1 70 1
 787 0418 67800000 		ret
 788              	.LVL77:
 789              	.L64:
 790              		.cfi_def_cfa_register 8
 791              		.cfi_offset 1, -8
 792              		.cfi_offset 8, -16
 793              		.cfi_offset 9, -24
 794              		.cfi_offset 18, -32
 795              		.cfi_offset 19, -40
GAS LISTING /tmp/cceX5oFf.s 			page 23


 796              		.cfi_offset 20, -48
  69:src/sem.cpp   **** }
 797              		.loc 1 69 12
 798 041c 13050000 		li	a0,0
  70:src/sem.cpp   **** 
 799              		.loc 1 70 1
 800 0420 83308102 		ld	ra,40(sp)
 801              		.cfi_restore 1
 802 0424 03340102 		ld	s0,32(sp)
 803              		.cfi_restore 8
 804              		.cfi_def_cfa 2, 48
 805 0428 83348101 		ld	s1,24(sp)
 806              		.cfi_restore 9
 807              	.LVL78:
 808 042c 03390101 		ld	s2,16(sp)
 809              		.cfi_restore 18
 810 0430 83398100 		ld	s3,8(sp)
 811              		.cfi_restore 19
 812 0434 033A0100 		ld	s4,0(sp)
 813              		.cfi_restore 20
 814 0438 13010103 		addi	sp,sp,48
 815              		.cfi_def_cfa_offset 0
 816 043c 67800000 		jr	ra
 817              		.cfi_endproc
 818              	.LFE62:
 820              		.align	2
 821              		.globl	_ZN10kSemaphore7tryWaitEv
 823              	_ZN10kSemaphore7tryWaitEv:
 824              	.LFB63:
  73:src/sem.cpp   ****     if (destroyed) return -1;
 825              		.loc 1 73 27 is_stmt 1
 826              		.cfi_startproc
 827              	.LVL79:
 828 0440 130101FF 		addi	sp,sp,-16
 829              		.cfi_def_cfa_offset 16
 830 0444 23348100 		sd	s0,8(sp)
 831              		.cfi_offset 8, -8
 832 0448 13040101 		addi	s0,sp,16
 833              		.cfi_def_cfa 8, 0
  74:src/sem.cpp   ****     if (val > 0) {
 834              		.loc 1 74 5
  74:src/sem.cpp   ****     if (val > 0) {
 835              		.loc 1 74 9 is_stmt 0
 836 044c 83478501 		lbu	a5,24(a0)
  74:src/sem.cpp   ****     if (val > 0) {
 837              		.loc 1 74 5
 838 0450 639A0702 		bnez	a5,.L75
  75:src/sem.cpp   ****         --val;
 839              		.loc 1 75 5 is_stmt 1
  75:src/sem.cpp   ****         --val;
 840              		.loc 1 75 9 is_stmt 0
 841 0454 83270500 		lw	a5,0(a0)
  75:src/sem.cpp   ****         --val;
 842              		.loc 1 75 5
 843 0458 6356F000 		blez	a5,.L74
  76:src/sem.cpp   ****     }
 844              		.loc 1 76 9 is_stmt 1
GAS LISTING /tmp/cceX5oFf.s 			page 24


 845 045c 9B87F7FF 		addiw	a5,a5,-1
 846 0460 2320F500 		sw	a5,0(a0)
 847              	.L74:
  78:src/sem.cpp   ****     if (val > 0) return 1;
 848              		.loc 1 78 5
  78:src/sem.cpp   ****     if (val > 0) return 1;
 849              		.loc 1 78 9 is_stmt 0
 850 0464 83270500 		lw	a5,0(a0)
  78:src/sem.cpp   ****     if (val > 0) return 1;
 851              		.loc 1 78 5
 852 0468 635AF000 		blez	a5,.L78
  79:src/sem.cpp   ****     return 0;
 853              		.loc 1 79 25
 854 046c 13051000 		li	a0,1
 855              	.LVL80:
 856              	.L73:
  81:src/sem.cpp   **** 
 857              		.loc 1 81 1
 858 0470 03348100 		ld	s0,8(sp)
 859              		.cfi_remember_state
 860              		.cfi_restore 8
 861              		.cfi_def_cfa 2, 16
 862 0474 13010101 		addi	sp,sp,16
 863              		.cfi_def_cfa_offset 0
 864 0478 67800000 		jr	ra
 865              	.LVL81:
 866              	.L78:
 867              		.cfi_restore_state
  78:src/sem.cpp   ****     if (val > 0) return 1;
 868              		.loc 1 78 26
 869 047c 13050000 		li	a0,0
 870              	.LVL82:
 871 0480 6FF01FFF 		j	.L73
 872              	.LVL83:
 873              	.L75:
  74:src/sem.cpp   ****     if (val > 0) {
 874              		.loc 1 74 28
 875 0484 1305F0FF 		li	a0,-1
 876              	.LVL84:
 877 0488 6FF09FFE 		j	.L73
 878              		.cfi_endproc
 879              	.LFE63:
 881              		.align	2
 882              		.globl	_ZN10kSemaphore9timedWaitEm
 884              	_ZN10kSemaphore9timedWaitEm:
 885              	.LFB64:
  83:src/sem.cpp   ****     if (destroyed) {return -1;};
 886              		.loc 1 83 40 is_stmt 1
 887              		.cfi_startproc
 888              	.LVL85:
  84:src/sem.cpp   ****     if (val <= 0) {
 889              		.loc 1 84 5
  84:src/sem.cpp   ****     if (val <= 0) {
 890              		.loc 1 84 9 is_stmt 0
 891 048c 83478501 		lbu	a5,24(a0)
  84:src/sem.cpp   ****     if (val <= 0) {
 892              		.loc 1 84 5
GAS LISTING /tmp/cceX5oFf.s 			page 25


 893 0490 6396070E 		bnez	a5,.L84
  83:src/sem.cpp   ****     if (destroyed) {return -1;};
 894              		.loc 1 83 40 discriminator 2
 895 0494 130101FD 		addi	sp,sp,-48
 896              		.cfi_def_cfa_offset 48
 897 0498 23341102 		sd	ra,40(sp)
 898 049c 23308102 		sd	s0,32(sp)
 899 04a0 233C9100 		sd	s1,24(sp)
 900 04a4 23382101 		sd	s2,16(sp)
 901 04a8 23343101 		sd	s3,8(sp)
 902              		.cfi_offset 1, -8
 903              		.cfi_offset 8, -16
 904              		.cfi_offset 9, -24
 905              		.cfi_offset 18, -32
 906              		.cfi_offset 19, -40
 907 04ac 13040103 		addi	s0,sp,48
 908              		.cfi_def_cfa 8, 0
 909 04b0 93040500 		mv	s1,a0
 910 04b4 13890500 		mv	s2,a1
  84:src/sem.cpp   ****     if (val <= 0) {
 911              		.loc 1 84 32 is_stmt 1 discriminator 2
  85:src/sem.cpp   ****         blockedTimedWait.addLast(TCB::running);
 912              		.loc 1 85 5 discriminator 2
  85:src/sem.cpp   ****         blockedTimedWait.addLast(TCB::running);
 913              		.loc 1 85 9 is_stmt 0 discriminator 2
 914 04b8 83270500 		lw	a5,0(a0)
  85:src/sem.cpp   ****         blockedTimedWait.addLast(TCB::running);
 915              		.loc 1 85 5 discriminator 2
 916 04bc 6356F002 		blez	a5,.L91
  97:src/sem.cpp   ****     return 0;
 917              		.loc 1 97 5 is_stmt 1
  97:src/sem.cpp   ****     return 0;
 918              		.loc 1 97 8 is_stmt 0
 919 04c0 9B87F7FF 		addiw	a5,a5,-1
 920 04c4 2320F500 		sw	a5,0(a0)
  98:src/sem.cpp   **** }
 921              		.loc 1 98 5 is_stmt 1
  98:src/sem.cpp   **** }
 922              		.loc 1 98 12 is_stmt 0
 923 04c8 13050000 		li	a0,0
 924              	.LVL86:
 925              	.L80:
 926              		.loc 1 99 1
 927 04cc 83308102 		ld	ra,40(sp)
 928              		.cfi_remember_state
 929              		.cfi_restore 1
 930 04d0 03340102 		ld	s0,32(sp)
 931              		.cfi_restore 8
 932              		.cfi_def_cfa 2, 48
 933 04d4 83348101 		ld	s1,24(sp)
 934              		.cfi_restore 9
 935              	.LVL87:
 936 04d8 03390101 		ld	s2,16(sp)
 937              		.cfi_restore 18
 938              	.LVL88:
 939 04dc 83398100 		ld	s3,8(sp)
 940              		.cfi_restore 19
GAS LISTING /tmp/cceX5oFf.s 			page 26


 941 04e0 13010103 		addi	sp,sp,48
 942              		.cfi_def_cfa_offset 0
 943 04e4 67800000 		jr	ra
 944              	.LVL89:
 945              	.L91:
 946              		.cfi_restore_state
  86:src/sem.cpp   ****         TCB::running->timeToWaitSem = time;
 947              		.loc 1 86 9 is_stmt 1
  86:src/sem.cpp   ****         TCB::running->timeToWaitSem = time;
 948              		.loc 1 86 33 is_stmt 0
 949 04e8 97070000 		la	a5,_ZN3TCB7runningE
 949      83B70700 
 950 04f0 83B90700 		ld	s3,0(a5)
 951              	.LVL90:
 952              	.LBB113:
 953              	.LBB114:
 954              	.LBB115:
 955              	.LBB116:
  23:src/../h/../h/../h/../h/list.hpp ****         }
 956              		.loc 2 23 38
 957 04f4 13050001 		li	a0,16
 958 04f8 97000000 		call	_ZN9Allocator7_mallocEm@plt
 958      E7800000 
 959              	.LVL91:
 960              	.LBE116:
 961              	.LBE115:
 962              	.LBB117:
 963              	.LBB118:
  20:src/../h/../h/../h/../h/list.hpp **** 
 964              		.loc 2 20 58
 965 0500 23303501 		sd	s3,0(a0)
 966 0504 23340500 		sd	zero,8(a0)
 967              	.LVL92:
 968              	.LBE118:
 969              	.LBE117:
  62:src/../h/../h/../h/../h/list.hpp ****         {
 970              		.loc 2 62 13
 971 0508 97070000 		ld	a5,.LANCHOR0+8
 971      83B70700 
  62:src/../h/../h/../h/../h/list.hpp ****         {
 972              		.loc 2 62 9
 973 0510 63880704 		beqz	a5,.L82
  64:src/../h/../h/../h/../h/list.hpp ****             tail = elem;
 974              		.loc 2 64 13
 975 0514 23B4A700 		sd	a0,8(a5)
  65:src/../h/../h/../h/../h/list.hpp ****         } else
 976              		.loc 2 65 13
 977 0518 97070000 		sd	a0,.LANCHOR0+8,a5
 977      23B0A700 
 978              	.L83:
 979              	.LVL93:
 980              	.LBE114:
 981              	.LBE113:
  87:src/sem.cpp   ****         block();
 982              		.loc 1 87 9 is_stmt 1
  87:src/sem.cpp   ****         block();
 983              		.loc 1 87 23 is_stmt 0
GAS LISTING /tmp/cceX5oFf.s 			page 27


 984 0520 97070000 		la	a5,_ZN3TCB7runningE
 984      83B70700 
 985 0528 83B70700 		ld	a5,0(a5)
  87:src/sem.cpp   ****         block();
 986              		.loc 1 87 37
 987 052c 23B42705 		sd	s2,72(a5)
  88:src/sem.cpp   ****         if (destroyed) {
 988              		.loc 1 88 9 is_stmt 1
  88:src/sem.cpp   ****         if (destroyed) {
 989              		.loc 1 88 14 is_stmt 0
 990 0530 13850400 		mv	a0,s1
 991              	.LVL94:
 992 0534 97000000 		call	_ZN10kSemaphore5blockEv
 992      E7800000 
 993              	.LVL95:
  89:src/sem.cpp   ****             return -1;
 994              		.loc 1 89 9 is_stmt 1
  89:src/sem.cpp   ****             return -1;
 995              		.loc 1 89 13 is_stmt 0
 996 053c 83C78401 		lbu	a5,24(s1)
  89:src/sem.cpp   ****             return -1;
 997              		.loc 1 89 9
 998 0540 63920704 		bnez	a5,.L85
  92:src/sem.cpp   ****             return -2;
 999              		.loc 1 92 9 is_stmt 1
  92:src/sem.cpp   ****             return -2;
 1000              		.loc 1 92 29 is_stmt 0
 1001 0544 97070000 		la	a5,_ZN3TCB7runningE
 1001      83B70700 
 1002 054c 83B70700 		ld	a5,0(a5)
 1003 0550 83C78705 		lbu	a5,88(a5)
  92:src/sem.cpp   ****             return -2;
 1004              		.loc 1 92 9
 1005 0554 63800702 		beqz	a5,.L92
  95:src/sem.cpp   ****     }
 1006              		.loc 1 95 16
 1007 0558 13050000 		li	a0,0
 1008 055c 6FF01FF7 		j	.L80
 1009              	.LVL96:
 1010              	.L82:
 1011              	.LBB120:
 1012              	.LBB119:
  68:src/../h/../h/../h/../h/list.hpp ****         }
 1013              		.loc 2 68 13
 1014 0560 97070000 		lla	a5,.LANCHOR0
 1014      93870700 
 1015 0568 23B4A700 		sd	a0,8(a5)
 1016 056c 23B0A700 		sd	a0,0(a5)
 1017 0570 6FF01FFB 		j	.L83
 1018              	.LVL97:
 1019              	.L92:
 1020              	.LBE119:
 1021              	.LBE120:
  93:src/sem.cpp   ****         }
 1022              		.loc 1 93 21
 1023 0574 1305E0FF 		li	a0,-2
 1024 0578 6FF05FF5 		j	.L80
GAS LISTING /tmp/cceX5oFf.s 			page 28


 1025              	.LVL98:
 1026              	.L84:
 1027              		.cfi_def_cfa_register 2
 1028              		.cfi_restore 1
 1029              		.cfi_restore 8
 1030              		.cfi_restore 9
 1031              		.cfi_restore 18
 1032              		.cfi_restore 19
  84:src/sem.cpp   ****     if (val <= 0) {
 1033              		.loc 1 84 29
 1034 057c 1305F0FF 		li	a0,-1
 1035              	.LVL99:
 1036              		.loc 1 99 1
 1037 0580 67800000 		ret
 1038              	.LVL100:
 1039              	.L85:
 1040              		.cfi_def_cfa_register 8
 1041              		.cfi_offset 1, -8
 1042              		.cfi_offset 8, -16
 1043              		.cfi_offset 9, -24
 1044              		.cfi_offset 18, -32
 1045              		.cfi_offset 19, -40
  90:src/sem.cpp   ****         }
 1046              		.loc 1 90 21
 1047 0584 1305F0FF 		li	a0,-1
 1048 0588 6FF05FF4 		j	.L80
 1049              		.cfi_endproc
 1050              	.LFE64:
 1052              		.align	2
 1054              	_GLOBAL__sub_I__ZN10kSemaphore16blockedTimedWaitE:
 1055              	.LFB78:
 1056              		.loc 1 99 1 is_stmt 1
 1057              		.cfi_startproc
 1058 058c 130101FF 		addi	sp,sp,-16
 1059              		.cfi_def_cfa_offset 16
 1060 0590 23341100 		sd	ra,8(sp)
 1061 0594 23308100 		sd	s0,0(sp)
 1062              		.cfi_offset 1, -8
 1063              		.cfi_offset 8, -16
 1064 0598 13040101 		addi	s0,sp,16
 1065              		.cfi_def_cfa 8, 0
 1066              		.loc 1 99 1 is_stmt 0
 1067 059c B7050100 		li	a1,65536
 1068 05a0 9385F5FF 		addi	a1,a1,-1
 1069 05a4 13051000 		li	a0,1
 1070 05a8 97000000 		call	_Z41__static_initialization_and_destruction_0ii
 1070      E7800000 
 1071              	.LVL101:
 1072 05b0 83308100 		ld	ra,8(sp)
 1073              		.cfi_restore 1
 1074 05b4 03340100 		ld	s0,0(sp)
 1075              		.cfi_restore 8
 1076              		.cfi_def_cfa 2, 16
 1077 05b8 13010101 		addi	sp,sp,16
 1078              		.cfi_def_cfa_offset 0
 1079 05bc 67800000 		jr	ra
 1080              		.cfi_endproc
GAS LISTING /tmp/cceX5oFf.s 			page 29


 1081              	.LFE78:
 1083              		.section	.init_array,"aw"
 1084              		.align	3
 1085 0000 00000000 		.dword	_GLOBAL__sub_I__ZN10kSemaphore16blockedTimedWaitE
 1085      00000000 
 1086              		.globl	_ZN10kSemaphore16blockedTimedWaitE
 1087              		.bss
 1088              		.align	3
 1089              		.set	.LANCHOR0,. + 0
 1092              	_ZN10kSemaphore16blockedTimedWaitE:
 1093 0000 00000000 		.zero	16
 1093      00000000 
 1093      00000000 
 1093      00000000 
 1094              		.text
 1095              	.Letext0:
 1096              		.file 4 "src/../h/../h/../lib/hw.h"
 1097              		.file 5 "src/../h/../h/../h/../h/../h/Allocator.hpp"
 1098              		.file 6 "src/../h/../h/../h/scheduler.hpp"
 1099              		.file 7 "src/../h/../h/tcb.hpp"
 1100              		.file 8 "src/../h/../h/../h/tipovi.hpp"
GAS LISTING /tmp/cceX5oFf.s 			page 30


DEFINED SYMBOLS
                            *ABS*:0000000000000000 sem.cpp
     /tmp/cceX5oFf.s:8      .text:0000000000000000 _Z41__static_initialization_and_destruction_0ii
     /tmp/cceX5oFf.s:12     .text:0000000000000000 .L0 
     /tmp/cceX5oFf.s:14     .text:0000000000000000 .L0 
     /tmp/cceX5oFf.s:15     .text:0000000000000004 .L0 
     /tmp/cceX5oFf.s:17     .text:0000000000000008 .L0 
     /tmp/cceX5oFf.s:19     .text:000000000000000c .L0 
     /tmp/cceX5oFf.s:21     .text:000000000000000c .L0 
     /tmp/cceX5oFf.s:25     .text:0000000000000018 .L0 
     /tmp/cceX5oFf.s:26     .text:0000000000000018 .L0 
     /tmp/cceX5oFf.s:27     .text:0000000000000018 .L0 
     /tmp/cceX5oFf.s:29     .text:000000000000001c .L0 
     /tmp/cceX5oFf.s:32     .text:0000000000000020 .L0 
     /tmp/cceX5oFf.s:34     .text:0000000000000020 .L0 
     /tmp/cceX5oFf.s:43     .text:000000000000002c .L0 
     /tmp/cceX5oFf.s:51     .text:000000000000003c .L0 
     /tmp/cceX5oFf.s:52     .text:0000000000000040 .L0 
     /tmp/cceX5oFf.s:58     .text:0000000000000040 _ZN10kSemaphore5blockEv
     /tmp/cceX5oFf.s:61     .text:0000000000000040 .L0 
     /tmp/cceX5oFf.s:63     .text:0000000000000040 .L0 
     /tmp/cceX5oFf.s:64     .text:0000000000000044 .L0 
     /tmp/cceX5oFf.s:69     .text:0000000000000054 .L0 
     /tmp/cceX5oFf.s:70     .text:0000000000000054 .L0 
     /tmp/cceX5oFf.s:71     .text:0000000000000054 .L0 
     /tmp/cceX5oFf.s:72     .text:0000000000000054 .L0 
     /tmp/cceX5oFf.s:74     .text:0000000000000058 .L0 
     /tmp/cceX5oFf.s:77     .text:000000000000005c .L0 
     /tmp/cceX5oFf.s:78     .text:000000000000005c .L0 
     /tmp/cceX5oFf.s:86     .text:0000000000000068 .L0 
     /tmp/cceX5oFf.s:95     .text:0000000000000074 .L0 
     /tmp/cceX5oFf.s:101    .text:000000000000007c .L0 
     /tmp/cceX5oFf.s:103    .text:0000000000000080 .L0 
     /tmp/cceX5oFf.s:105    .text:0000000000000084 .L0 
     /tmp/cceX5oFf.s:107    .text:0000000000000088 .L0 
     /tmp/cceX5oFf.s:113    .text:000000000000008c .L0 
     /tmp/cceX5oFf.s:114    .text:000000000000008c .L0 
     /tmp/cceX5oFf.s:117    .text:0000000000000098 .L0 
     /tmp/cceX5oFf.s:120    .text:00000000000000a0 .L0 
     /tmp/cceX5oFf.s:121    .text:00000000000000a0 .L0 
     /tmp/cceX5oFf.s:124    .text:00000000000000ac .L0 
     /tmp/cceX5oFf.s:125    .text:00000000000000ac .L0 
     /tmp/cceX5oFf.s:127    .text:00000000000000b0 .L0 
     /tmp/cceX5oFf.s:128    .text:00000000000000b0 .L0 
     /tmp/cceX5oFf.s:131    .text:00000000000000b8 .L0 
     /tmp/cceX5oFf.s:132    .text:00000000000000bc .L0 
     /tmp/cceX5oFf.s:133    .text:00000000000000bc .L0 
     /tmp/cceX5oFf.s:135    .text:00000000000000c0 .L0 
     /tmp/cceX5oFf.s:136    .text:00000000000000c0 .L0 
     /tmp/cceX5oFf.s:138    .text:00000000000000c4 .L0 
     /tmp/cceX5oFf.s:141    .text:00000000000000c8 .L0 
     /tmp/cceX5oFf.s:143    .text:00000000000000cc .L0 
     /tmp/cceX5oFf.s:147    .text:00000000000000d0 .L0 
     /tmp/cceX5oFf.s:151    .text:00000000000000d0 .L0 
     /tmp/cceX5oFf.s:156    .text:00000000000000dc .L0 
     /tmp/cceX5oFf.s:162    .text:00000000000000dc _ZN10kSemaphore4waitEv
     /tmp/cceX5oFf.s:165    .text:00000000000000dc .L0 
GAS LISTING /tmp/cceX5oFf.s 			page 31


     /tmp/cceX5oFf.s:167    .text:00000000000000dc .L0 
     /tmp/cceX5oFf.s:168    .text:00000000000000dc .L0 
     /tmp/cceX5oFf.s:169    .text:00000000000000dc .L0 
     /tmp/cceX5oFf.s:171    .text:00000000000000e0 .L0 
     /tmp/cceX5oFf.s:173    .text:00000000000000e4 .L0 
     /tmp/cceX5oFf.s:174    .text:00000000000000e8 .L0 
     /tmp/cceX5oFf.s:178    .text:00000000000000f4 .L0 
     /tmp/cceX5oFf.s:179    .text:00000000000000f4 .L0 
     /tmp/cceX5oFf.s:180    .text:00000000000000f4 .L0 
     /tmp/cceX5oFf.s:182    .text:00000000000000f8 .L0 
     /tmp/cceX5oFf.s:185    .text:00000000000000fc .L0 
     /tmp/cceX5oFf.s:186    .text:00000000000000fc .L0 
     /tmp/cceX5oFf.s:187    .text:00000000000000fc .L0 
     /tmp/cceX5oFf.s:189    .text:0000000000000100 .L0 
     /tmp/cceX5oFf.s:191    .text:0000000000000104 .L0 
     /tmp/cceX5oFf.s:193    .text:0000000000000108 .L0 
     /tmp/cceX5oFf.s:198    .text:0000000000000110 .L0 
     /tmp/cceX5oFf.s:199    .text:0000000000000110 .L0 
     /tmp/cceX5oFf.s:201    .text:0000000000000114 .L0 
     /tmp/cceX5oFf.s:203    .text:0000000000000118 .L0 
     /tmp/cceX5oFf.s:206    .text:000000000000011c .L0 
     /tmp/cceX5oFf.s:207    .text:0000000000000120 .L0 
     /tmp/cceX5oFf.s:208    .text:0000000000000120 .L0 
     /tmp/cceX5oFf.s:210    .text:0000000000000124 .L0 
     /tmp/cceX5oFf.s:211    .text:0000000000000124 .L0 
     /tmp/cceX5oFf.s:213    .text:0000000000000128 .L0 
     /tmp/cceX5oFf.s:216    .text:000000000000012c .L0 
     /tmp/cceX5oFf.s:220    .text:0000000000000130 .L0 
     /tmp/cceX5oFf.s:222    .text:0000000000000130 .L0 
     /tmp/cceX5oFf.s:223    .text:0000000000000130 .L0 
     /tmp/cceX5oFf.s:228    .text:000000000000013c .L0 
     /tmp/cceX5oFf.s:229    .text:000000000000013c .L0 
     /tmp/cceX5oFf.s:230    .text:000000000000013c .L0 
     /tmp/cceX5oFf.s:231    .text:000000000000013c .L0 
     /tmp/cceX5oFf.s:233    .text:000000000000013c .L0 
     /tmp/cceX5oFf.s:236    .text:0000000000000140 .L0 
     /tmp/cceX5oFf.s:239    .text:0000000000000144 .L0 
     /tmp/cceX5oFf.s:240    .text:0000000000000144 .L0 
     /tmp/cceX5oFf.s:241    .text:0000000000000144 .L0 
     /tmp/cceX5oFf.s:242    .text:0000000000000144 .L0 
     /tmp/cceX5oFf.s:244    .text:0000000000000144 .L0 
     /tmp/cceX5oFf.s:246    .text:000000000000014c .L0 
     /tmp/cceX5oFf.s:252    .text:000000000000014c _ZN10kSemaphore7unblockEv
     /tmp/cceX5oFf.s:255    .text:000000000000014c .L0 
     /tmp/cceX5oFf.s:257    .text:000000000000014c .L0 
     /tmp/cceX5oFf.s:258    .text:0000000000000150 .L0 
     /tmp/cceX5oFf.s:264    .text:0000000000000164 .L0 
     /tmp/cceX5oFf.s:265    .text:0000000000000164 .L0 
     /tmp/cceX5oFf.s:266    .text:0000000000000164 .L0 
     /tmp/cceX5oFf.s:267    .text:0000000000000164 .L0 
     /tmp/cceX5oFf.s:268    .text:0000000000000164 .L0 
     /tmp/cceX5oFf.s:270    .text:0000000000000168 .L0 
     /tmp/cceX5oFf.s:276    .text:000000000000016c .L0 
     /tmp/cceX5oFf.s:277    .text:000000000000016c .L0 
     /tmp/cceX5oFf.s:279    .text:0000000000000170 .L0 
     /tmp/cceX5oFf.s:281    .text:0000000000000174 .L0 
     /tmp/cceX5oFf.s:287    .text:0000000000000178 .L0 
GAS LISTING /tmp/cceX5oFf.s 			page 32


     /tmp/cceX5oFf.s:288    .text:0000000000000178 .L0 
     /tmp/cceX5oFf.s:290    .text:000000000000017c .L0 
     /tmp/cceX5oFf.s:291    .text:000000000000017c .L0 
     /tmp/cceX5oFf.s:293    .text:0000000000000180 .L0 
     /tmp/cceX5oFf.s:294    .text:0000000000000180 .L0 
     /tmp/cceX5oFf.s:297    .text:000000000000018c .L0 
     /tmp/cceX5oFf.s:298    .text:000000000000018c .L0 
     /tmp/cceX5oFf.s:303    .text:0000000000000194 .L0 
     /tmp/cceX5oFf.s:304    .text:0000000000000194 .L0 
     /tmp/cceX5oFf.s:307    .text:0000000000000198 .L0 
     /tmp/cceX5oFf.s:310    .text:000000000000019c .L0 
     /tmp/cceX5oFf.s:312    .text:00000000000001a0 .L0 
     /tmp/cceX5oFf.s:314    .text:00000000000001a4 .L0 
     /tmp/cceX5oFf.s:320    .text:00000000000001a8 .L0 
     /tmp/cceX5oFf.s:330    .text:00000000000001b0 .L0 
     /tmp/cceX5oFf.s:331    .text:00000000000001b0 .L0 
     /tmp/cceX5oFf.s:334    .text:00000000000001b8 .L0 
     /tmp/cceX5oFf.s:343    .text:00000000000001c0 .L0 
     /tmp/cceX5oFf.s:354    .text:00000000000001c8 .L0 
     /tmp/cceX5oFf.s:356    .text:00000000000001cc .L0 
     /tmp/cceX5oFf.s:358    .text:00000000000001d0 .L0 
     /tmp/cceX5oFf.s:361    .text:00000000000001d4 .L0 
     /tmp/cceX5oFf.s:363    .text:00000000000001dc .L0 
     /tmp/cceX5oFf.s:366    .text:00000000000001e0 .L0 
     /tmp/cceX5oFf.s:369    .text:00000000000001e4 .L0 
     /tmp/cceX5oFf.s:374    .text:00000000000001e8 .L0 
     /tmp/cceX5oFf.s:382    .text:00000000000001f0 .L0 
     /tmp/cceX5oFf.s:386    .text:00000000000001f4 .L0 
     /tmp/cceX5oFf.s:389    .text:00000000000001f8 .L0 
     /tmp/cceX5oFf.s:391    .text:00000000000001fc .L0 
     /tmp/cceX5oFf.s:394    .text:0000000000000200 .L0 
     /tmp/cceX5oFf.s:397    .text:0000000000000204 .L0 
     /tmp/cceX5oFf.s:403    .text:000000000000020c .L0 
     /tmp/cceX5oFf.s:405    .text:0000000000000210 .L0 
     /tmp/cceX5oFf.s:409    .text:000000000000021c .L0 
     /tmp/cceX5oFf.s:418    .text:0000000000000228 .L0 
     /tmp/cceX5oFf.s:419    .text:0000000000000228 .L0 
     /tmp/cceX5oFf.s:423    .text:0000000000000234 .L0 
     /tmp/cceX5oFf.s:424    .text:0000000000000238 .L0 
     /tmp/cceX5oFf.s:426    .text:000000000000023c .L0 
     /tmp/cceX5oFf.s:427    .text:000000000000023c .L0 
     /tmp/cceX5oFf.s:429    .text:0000000000000240 .L0 
     /tmp/cceX5oFf.s:432    .text:0000000000000244 .L0 
     /tmp/cceX5oFf.s:434    .text:0000000000000248 .L0 
     /tmp/cceX5oFf.s:436    .text:000000000000024c .L0 
     /tmp/cceX5oFf.s:438    .text:0000000000000250 .L0 
     /tmp/cceX5oFf.s:444    .text:0000000000000250 _ZN10kSemaphore6signalEv
     /tmp/cceX5oFf.s:447    .text:0000000000000250 .L0 
     /tmp/cceX5oFf.s:449    .text:0000000000000250 .L0 
     /tmp/cceX5oFf.s:450    .text:0000000000000250 .L0 
     /tmp/cceX5oFf.s:451    .text:0000000000000250 .L0 
     /tmp/cceX5oFf.s:453    .text:0000000000000254 .L0 
     /tmp/cceX5oFf.s:455    .text:0000000000000258 .L0 
     /tmp/cceX5oFf.s:456    .text:0000000000000258 .L0 
     /tmp/cceX5oFf.s:458    .text:000000000000025c .L0 
     /tmp/cceX5oFf.s:461    .text:0000000000000264 .L0 
     /tmp/cceX5oFf.s:463    .text:0000000000000268 .L0 
GAS LISTING /tmp/cceX5oFf.s 			page 33


     /tmp/cceX5oFf.s:465    .text:000000000000026c .L0 
     /tmp/cceX5oFf.s:468    .text:0000000000000270 .L0 
     /tmp/cceX5oFf.s:472    .text:0000000000000274 .L0 
     /tmp/cceX5oFf.s:473    .text:0000000000000278 .L0 
     /tmp/cceX5oFf.s:476    .text:0000000000000280 .L0 
     /tmp/cceX5oFf.s:477    .text:0000000000000280 .L0 
     /tmp/cceX5oFf.s:479    .text:0000000000000284 .L0 
     /tmp/cceX5oFf.s:481    .text:0000000000000284 .L0 
     /tmp/cceX5oFf.s:482    .text:0000000000000284 .L0 
     /tmp/cceX5oFf.s:485    .text:000000000000028c .L0 
     /tmp/cceX5oFf.s:487    .text:0000000000000290 .L0 
     /tmp/cceX5oFf.s:488    .text:0000000000000294 .L0 
     /tmp/cceX5oFf.s:490    .text:0000000000000298 .L0 
     /tmp/cceX5oFf.s:491    .text:0000000000000298 .L0 
     /tmp/cceX5oFf.s:493    .text:000000000000029c .L0 
     /tmp/cceX5oFf.s:498    .text:00000000000002a0 .L0 
     /tmp/cceX5oFf.s:501    .text:00000000000002a8 .L0 
     /tmp/cceX5oFf.s:507    .text:00000000000002a8 _ZN10kSemaphore7openSemEPPS_j
     /tmp/cceX5oFf.s:510    .text:00000000000002a8 .L0 
     /tmp/cceX5oFf.s:512    .text:00000000000002a8 .L0 
     /tmp/cceX5oFf.s:513    .text:00000000000002a8 .L0 
     /tmp/cceX5oFf.s:515    .text:00000000000002ac .L0 
     /tmp/cceX5oFf.s:516    .text:00000000000002b0 .L0 
     /tmp/cceX5oFf.s:521    .text:00000000000002c0 .L0 
     /tmp/cceX5oFf.s:522    .text:00000000000002c0 .L0 
     /tmp/cceX5oFf.s:523    .text:00000000000002c0 .L0 
     /tmp/cceX5oFf.s:524    .text:00000000000002c0 .L0 
     /tmp/cceX5oFf.s:526    .text:00000000000002c4 .L0 
     /tmp/cceX5oFf.s:534    .text:00000000000002cc .L0 
     /tmp/cceX5oFf.s:535    .text:00000000000002cc .L0 
     /tmp/cceX5oFf.s:536    .text:00000000000002cc .L0 
     /tmp/cceX5oFf.s:545    .text:00000000000002d8 .L0 
     /tmp/cceX5oFf.s:550    .text:00000000000002dc .L0 
     /tmp/cceX5oFf.s:556    .text:00000000000002e4 .L0 
     /tmp/cceX5oFf.s:561    .text:00000000000002e8 .L0 
     /tmp/cceX5oFf.s:563    .text:00000000000002ec .L0 
     /tmp/cceX5oFf.s:565    .text:00000000000002f0 .L0 
     /tmp/cceX5oFf.s:568    .text:00000000000002f4 .L0 
     /tmp/cceX5oFf.s:569    .text:00000000000002f8 .L0 
     /tmp/cceX5oFf.s:571    .text:00000000000002fc .L0 
     /tmp/cceX5oFf.s:572    .text:00000000000002fc .L0 
     /tmp/cceX5oFf.s:574    .text:0000000000000300 .L0 
     /tmp/cceX5oFf.s:577    .text:0000000000000304 .L0 
     /tmp/cceX5oFf.s:579    .text:0000000000000308 .L0 
     /tmp/cceX5oFf.s:584    .text:000000000000030c .L0 
     /tmp/cceX5oFf.s:587    .text:0000000000000310 .L0 
     /tmp/cceX5oFf.s:590    .text:0000000000000314 .L0 
     /tmp/cceX5oFf.s:591    .text:0000000000000314 .L0 
     /tmp/cceX5oFf.s:592    .text:0000000000000314 .L0 
     /tmp/cceX5oFf.s:593    .text:0000000000000314 .L0 
     /tmp/cceX5oFf.s:594    .text:0000000000000314 .L0 
     /tmp/cceX5oFf.s:596    .text:0000000000000314 .L0 
     /tmp/cceX5oFf.s:598    .text:000000000000031c .L0 
     /tmp/cceX5oFf.s:604    .text:000000000000031c _ZN10kSemaphore8closeSemEv
     /tmp/cceX5oFf.s:607    .text:000000000000031c .L0 
     /tmp/cceX5oFf.s:609    .text:000000000000031c .L0 
     /tmp/cceX5oFf.s:610    .text:000000000000031c .L0 
GAS LISTING /tmp/cceX5oFf.s 			page 34


     /tmp/cceX5oFf.s:611    .text:000000000000031c .L0 
     /tmp/cceX5oFf.s:613    .text:0000000000000320 .L0 
     /tmp/cceX5oFf.s:615    .text:0000000000000324 .L0 
     /tmp/cceX5oFf.s:616    .text:0000000000000328 .L0 
     /tmp/cceX5oFf.s:623    .text:0000000000000340 .L0 
     /tmp/cceX5oFf.s:624    .text:0000000000000340 .L0 
     /tmp/cceX5oFf.s:625    .text:0000000000000340 .L0 
     /tmp/cceX5oFf.s:626    .text:0000000000000340 .L0 
     /tmp/cceX5oFf.s:627    .text:0000000000000340 .L0 
     /tmp/cceX5oFf.s:628    .text:0000000000000340 .L0 
     /tmp/cceX5oFf.s:630    .text:0000000000000344 .L0 
     /tmp/cceX5oFf.s:632    .text:0000000000000344 .L0 
     /tmp/cceX5oFf.s:633    .text:0000000000000344 .L0 
     /tmp/cceX5oFf.s:636    .text:000000000000034c .L0 
     /tmp/cceX5oFf.s:637    .text:000000000000034c .L0 
     /tmp/cceX5oFf.s:640    .text:0000000000000350 .L0 
     /tmp/cceX5oFf.s:648    .text:0000000000000354 .L0 
     /tmp/cceX5oFf.s:650    .text:0000000000000358 .L0 
     /tmp/cceX5oFf.s:652    .text:000000000000035c .L0 
     /tmp/cceX5oFf.s:655    .text:0000000000000360 .L0 
     /tmp/cceX5oFf.s:657    .text:0000000000000368 .L0 
     /tmp/cceX5oFf.s:660    .text:000000000000036c .L0 
     /tmp/cceX5oFf.s:663    .text:0000000000000370 .L0 
     /tmp/cceX5oFf.s:668    .text:0000000000000374 .L0 
     /tmp/cceX5oFf.s:676    .text:000000000000037c .L0 
     /tmp/cceX5oFf.s:680    .text:0000000000000380 .L0 
     /tmp/cceX5oFf.s:683    .text:0000000000000384 .L0 
     /tmp/cceX5oFf.s:685    .text:0000000000000388 .L0 
     /tmp/cceX5oFf.s:688    .text:000000000000038c .L0 
     /tmp/cceX5oFf.s:691    .text:0000000000000390 .L0 
     /tmp/cceX5oFf.s:697    .text:0000000000000398 .L0 
     /tmp/cceX5oFf.s:699    .text:000000000000039c .L0 
     /tmp/cceX5oFf.s:703    .text:00000000000003a8 .L0 
     /tmp/cceX5oFf.s:712    .text:00000000000003b4 .L0 
     /tmp/cceX5oFf.s:713    .text:00000000000003b4 .L0 
     /tmp/cceX5oFf.s:715    .text:00000000000003b8 .L0 
     /tmp/cceX5oFf.s:717    .text:00000000000003bc .L0 
     /tmp/cceX5oFf.s:718    .text:00000000000003bc .L0 
     /tmp/cceX5oFf.s:720    .text:00000000000003c0 .L0 
     /tmp/cceX5oFf.s:722    .text:00000000000003c4 .L0 
     /tmp/cceX5oFf.s:723    .text:00000000000003c4 .L0 
     /tmp/cceX5oFf.s:727    .text:00000000000003d0 .L0 
     /tmp/cceX5oFf.s:728    .text:00000000000003d0 .L0 
     /tmp/cceX5oFf.s:729    .text:00000000000003d0 .L0 
     /tmp/cceX5oFf.s:732    .text:00000000000003d4 .L0 
     /tmp/cceX5oFf.s:733    .text:00000000000003d4 .L0 
     /tmp/cceX5oFf.s:738    .text:00000000000003d8 .L0 
     /tmp/cceX5oFf.s:745    .text:00000000000003e4 .L0 
     /tmp/cceX5oFf.s:749    .text:00000000000003e8 .L0 
     /tmp/cceX5oFf.s:750    .text:00000000000003e8 .L0 
     /tmp/cceX5oFf.s:752    .text:00000000000003ec .L0 
     /tmp/cceX5oFf.s:753    .text:00000000000003ec .L0 
     /tmp/cceX5oFf.s:755    .text:00000000000003f0 .L0 
     /tmp/cceX5oFf.s:757    .text:00000000000003f4 .L0 
     /tmp/cceX5oFf.s:758    .text:00000000000003f4 .L0 
     /tmp/cceX5oFf.s:761    .text:0000000000000400 .L0 
     /tmp/cceX5oFf.s:762    .text:0000000000000400 .L0 
GAS LISTING /tmp/cceX5oFf.s 			page 35


     /tmp/cceX5oFf.s:767    .text:0000000000000404 .L0 
     /tmp/cceX5oFf.s:770    .text:000000000000040c .L0 
     /tmp/cceX5oFf.s:774    .text:0000000000000414 .L0 
     /tmp/cceX5oFf.s:775    .text:0000000000000414 .L0 
     /tmp/cceX5oFf.s:776    .text:0000000000000414 .L0 
     /tmp/cceX5oFf.s:777    .text:0000000000000414 .L0 
     /tmp/cceX5oFf.s:778    .text:0000000000000414 .L0 
     /tmp/cceX5oFf.s:779    .text:0000000000000414 .L0 
     /tmp/cceX5oFf.s:780    .text:0000000000000414 .L0 
     /tmp/cceX5oFf.s:784    .text:0000000000000414 .L0 
     /tmp/cceX5oFf.s:787    .text:0000000000000418 .L0 
     /tmp/cceX5oFf.s:790    .text:000000000000041c .L0 
     /tmp/cceX5oFf.s:791    .text:000000000000041c .L0 
     /tmp/cceX5oFf.s:792    .text:000000000000041c .L0 
     /tmp/cceX5oFf.s:793    .text:000000000000041c .L0 
     /tmp/cceX5oFf.s:794    .text:000000000000041c .L0 
     /tmp/cceX5oFf.s:795    .text:000000000000041c .L0 
     /tmp/cceX5oFf.s:796    .text:000000000000041c .L0 
     /tmp/cceX5oFf.s:798    .text:000000000000041c .L0 
     /tmp/cceX5oFf.s:800    .text:0000000000000420 .L0 
     /tmp/cceX5oFf.s:801    .text:0000000000000424 .L0 
     /tmp/cceX5oFf.s:803    .text:0000000000000428 .L0 
     /tmp/cceX5oFf.s:804    .text:0000000000000428 .L0 
     /tmp/cceX5oFf.s:806    .text:000000000000042c .L0 
     /tmp/cceX5oFf.s:809    .text:0000000000000430 .L0 
     /tmp/cceX5oFf.s:811    .text:0000000000000434 .L0 
     /tmp/cceX5oFf.s:813    .text:0000000000000438 .L0 
     /tmp/cceX5oFf.s:815    .text:000000000000043c .L0 
     /tmp/cceX5oFf.s:817    .text:0000000000000440 .L0 
     /tmp/cceX5oFf.s:823    .text:0000000000000440 _ZN10kSemaphore7tryWaitEv
     /tmp/cceX5oFf.s:826    .text:0000000000000440 .L0 
     /tmp/cceX5oFf.s:828    .text:0000000000000440 .L0 
     /tmp/cceX5oFf.s:829    .text:0000000000000444 .L0 
     /tmp/cceX5oFf.s:831    .text:0000000000000448 .L0 
     /tmp/cceX5oFf.s:833    .text:000000000000044c .L0 
     /tmp/cceX5oFf.s:835    .text:000000000000044c .L0 
     /tmp/cceX5oFf.s:836    .text:000000000000044c .L0 
     /tmp/cceX5oFf.s:838    .text:0000000000000450 .L0 
     /tmp/cceX5oFf.s:840    .text:0000000000000454 .L0 
     /tmp/cceX5oFf.s:841    .text:0000000000000454 .L0 
     /tmp/cceX5oFf.s:843    .text:0000000000000458 .L0 
     /tmp/cceX5oFf.s:845    .text:000000000000045c .L0 
     /tmp/cceX5oFf.s:849    .text:0000000000000464 .L0 
     /tmp/cceX5oFf.s:850    .text:0000000000000464 .L0 
     /tmp/cceX5oFf.s:852    .text:0000000000000468 .L0 
     /tmp/cceX5oFf.s:854    .text:000000000000046c .L0 
     /tmp/cceX5oFf.s:858    .text:0000000000000470 .L0 
     /tmp/cceX5oFf.s:859    .text:0000000000000474 .L0 
     /tmp/cceX5oFf.s:860    .text:0000000000000474 .L0 
     /tmp/cceX5oFf.s:861    .text:0000000000000474 .L0 
     /tmp/cceX5oFf.s:863    .text:0000000000000478 .L0 
     /tmp/cceX5oFf.s:867    .text:000000000000047c .L0 
     /tmp/cceX5oFf.s:869    .text:000000000000047c .L0 
     /tmp/cceX5oFf.s:875    .text:0000000000000484 .L0 
     /tmp/cceX5oFf.s:878    .text:000000000000048c .L0 
     /tmp/cceX5oFf.s:884    .text:000000000000048c _ZN10kSemaphore9timedWaitEm
     /tmp/cceX5oFf.s:887    .text:000000000000048c .L0 
GAS LISTING /tmp/cceX5oFf.s 			page 36


     /tmp/cceX5oFf.s:889    .text:000000000000048c .L0 
     /tmp/cceX5oFf.s:890    .text:000000000000048c .L0 
     /tmp/cceX5oFf.s:891    .text:000000000000048c .L0 
     /tmp/cceX5oFf.s:893    .text:0000000000000490 .L0 
     /tmp/cceX5oFf.s:895    .text:0000000000000494 .L0 
     /tmp/cceX5oFf.s:896    .text:0000000000000498 .L0 
     /tmp/cceX5oFf.s:902    .text:00000000000004ac .L0 
     /tmp/cceX5oFf.s:903    .text:00000000000004ac .L0 
     /tmp/cceX5oFf.s:904    .text:00000000000004ac .L0 
     /tmp/cceX5oFf.s:905    .text:00000000000004ac .L0 
     /tmp/cceX5oFf.s:906    .text:00000000000004ac .L0 
     /tmp/cceX5oFf.s:908    .text:00000000000004b0 .L0 
     /tmp/cceX5oFf.s:912    .text:00000000000004b8 .L0 
     /tmp/cceX5oFf.s:913    .text:00000000000004b8 .L0 
     /tmp/cceX5oFf.s:914    .text:00000000000004b8 .L0 
     /tmp/cceX5oFf.s:916    .text:00000000000004bc .L0 
     /tmp/cceX5oFf.s:918    .text:00000000000004c0 .L0 
     /tmp/cceX5oFf.s:919    .text:00000000000004c0 .L0 
     /tmp/cceX5oFf.s:922    .text:00000000000004c8 .L0 
     /tmp/cceX5oFf.s:923    .text:00000000000004c8 .L0 
     /tmp/cceX5oFf.s:927    .text:00000000000004cc .L0 
     /tmp/cceX5oFf.s:928    .text:00000000000004d0 .L0 
     /tmp/cceX5oFf.s:929    .text:00000000000004d0 .L0 
     /tmp/cceX5oFf.s:931    .text:00000000000004d4 .L0 
     /tmp/cceX5oFf.s:932    .text:00000000000004d4 .L0 
     /tmp/cceX5oFf.s:934    .text:00000000000004d8 .L0 
     /tmp/cceX5oFf.s:937    .text:00000000000004dc .L0 
     /tmp/cceX5oFf.s:940    .text:00000000000004e0 .L0 
     /tmp/cceX5oFf.s:942    .text:00000000000004e4 .L0 
     /tmp/cceX5oFf.s:946    .text:00000000000004e8 .L0 
     /tmp/cceX5oFf.s:948    .text:00000000000004e8 .L0 
     /tmp/cceX5oFf.s:949    .text:00000000000004e8 .L0 
     /tmp/cceX5oFf.s:957    .text:00000000000004f4 .L0 
     /tmp/cceX5oFf.s:965    .text:0000000000000500 .L0 
     /tmp/cceX5oFf.s:971    .text:0000000000000508 .L0 
     /tmp/cceX5oFf.s:973    .text:0000000000000510 .L0 
     /tmp/cceX5oFf.s:975    .text:0000000000000514 .L0 
     /tmp/cceX5oFf.s:977    .text:0000000000000518 .L0 
     /tmp/cceX5oFf.s:983    .text:0000000000000520 .L0 
     /tmp/cceX5oFf.s:984    .text:0000000000000520 .L0 
     /tmp/cceX5oFf.s:987    .text:000000000000052c .L0 
     /tmp/cceX5oFf.s:989    .text:0000000000000530 .L0 
     /tmp/cceX5oFf.s:990    .text:0000000000000530 .L0 
     /tmp/cceX5oFf.s:995    .text:000000000000053c .L0 
     /tmp/cceX5oFf.s:996    .text:000000000000053c .L0 
     /tmp/cceX5oFf.s:998    .text:0000000000000540 .L0 
     /tmp/cceX5oFf.s:1000   .text:0000000000000544 .L0 
     /tmp/cceX5oFf.s:1001   .text:0000000000000544 .L0 
     /tmp/cceX5oFf.s:1005   .text:0000000000000554 .L0 
     /tmp/cceX5oFf.s:1007   .text:0000000000000558 .L0 
     /tmp/cceX5oFf.s:1014   .text:0000000000000560 .L0 
     /tmp/cceX5oFf.s:1023   .text:0000000000000574 .L0 
     /tmp/cceX5oFf.s:1027   .text:000000000000057c .L0 
     /tmp/cceX5oFf.s:1028   .text:000000000000057c .L0 
     /tmp/cceX5oFf.s:1029   .text:000000000000057c .L0 
     /tmp/cceX5oFf.s:1030   .text:000000000000057c .L0 
     /tmp/cceX5oFf.s:1031   .text:000000000000057c .L0 
GAS LISTING /tmp/cceX5oFf.s 			page 37


     /tmp/cceX5oFf.s:1032   .text:000000000000057c .L0 
     /tmp/cceX5oFf.s:1034   .text:000000000000057c .L0 
     /tmp/cceX5oFf.s:1037   .text:0000000000000580 .L0 
     /tmp/cceX5oFf.s:1040   .text:0000000000000584 .L0 
     /tmp/cceX5oFf.s:1041   .text:0000000000000584 .L0 
     /tmp/cceX5oFf.s:1042   .text:0000000000000584 .L0 
     /tmp/cceX5oFf.s:1043   .text:0000000000000584 .L0 
     /tmp/cceX5oFf.s:1044   .text:0000000000000584 .L0 
     /tmp/cceX5oFf.s:1045   .text:0000000000000584 .L0 
     /tmp/cceX5oFf.s:1047   .text:0000000000000584 .L0 
     /tmp/cceX5oFf.s:1049   .text:000000000000058c .L0 
     /tmp/cceX5oFf.s:1054   .text:000000000000058c _GLOBAL__sub_I__ZN10kSemaphore16blockedTimedWaitE
     /tmp/cceX5oFf.s:1057   .text:000000000000058c .L0 
     /tmp/cceX5oFf.s:1058   .text:000000000000058c .L0 
     /tmp/cceX5oFf.s:1059   .text:0000000000000590 .L0 
     /tmp/cceX5oFf.s:1062   .text:0000000000000598 .L0 
     /tmp/cceX5oFf.s:1063   .text:0000000000000598 .L0 
     /tmp/cceX5oFf.s:1065   .text:000000000000059c .L0 
     /tmp/cceX5oFf.s:1067   .text:000000000000059c .L0 
     /tmp/cceX5oFf.s:1073   .text:00000000000005b4 .L0 
     /tmp/cceX5oFf.s:1075   .text:00000000000005b8 .L0 
     /tmp/cceX5oFf.s:1076   .text:00000000000005b8 .L0 
     /tmp/cceX5oFf.s:1078   .text:00000000000005bc .L0 
     /tmp/cceX5oFf.s:1080   .text:00000000000005c0 .L0 
     /tmp/cceX5oFf.s:1092   .bss:0000000000000000 _ZN10kSemaphore16blockedTimedWaitE
     /tmp/cceX5oFf.s:1089   .bss:0000000000000000 .LANCHOR0
     /tmp/cceX5oFf.s:1101   .text:00000000000005c0 .L0 
     /tmp/cceX5oFf.s:43     .text:000000000000002c .L0 
     /tmp/cceX5oFf.s:78     .text:000000000000005c .L0 
     /tmp/cceX5oFf.s:114    .text:000000000000008c .L0 
     /tmp/cceX5oFf.s:121    .text:00000000000000a0 .L0 
     /tmp/cceX5oFf.s:294    .text:0000000000000180 .L0 
     /tmp/cceX5oFf.s:331    .text:00000000000001b0 .L0 
     /tmp/cceX5oFf.s:361    .text:00000000000001d4 .L0 
     /tmp/cceX5oFf.s:405    .text:0000000000000210 .L0 
     /tmp/cceX5oFf.s:409    .text:000000000000021c .L0 
     /tmp/cceX5oFf.s:655    .text:0000000000000360 .L0 
     /tmp/cceX5oFf.s:699    .text:000000000000039c .L0 
     /tmp/cceX5oFf.s:703    .text:00000000000003a8 .L0 
     /tmp/cceX5oFf.s:758    .text:00000000000003f4 .L0 
     /tmp/cceX5oFf.s:767    .text:0000000000000404 .L0 
     /tmp/cceX5oFf.s:949    .text:00000000000004e8 .L0 
     /tmp/cceX5oFf.s:971    .text:0000000000000508 .L0 
     /tmp/cceX5oFf.s:977    .text:0000000000000518 .L0 
     /tmp/cceX5oFf.s:984    .text:0000000000000520 .L0 
     /tmp/cceX5oFf.s:1001   .text:0000000000000544 .L0 
     /tmp/cceX5oFf.s:1014   .text:0000000000000560 .L0 
     /tmp/cceX5oFf.s:31     .text:0000000000000020 .L4
     /tmp/cceX5oFf.s:23     .text:0000000000000014 .L1
     /tmp/cceX5oFf.s:146    .text:00000000000000d0 .L6
     /tmp/cceX5oFf.s:108    .text:000000000000008c .L7
     /tmp/cceX5oFf.s:227    .text:000000000000013c .L12
     /tmp/cceX5oFf.s:219    .text:0000000000000130 .L18
     /tmp/cceX5oFf.s:238    .text:0000000000000144 .L13
     /tmp/cceX5oFf.s:196    .text:0000000000000110 .L11
     /tmp/cceX5oFf.s:204    .text:000000000000011c .L10
     /tmp/cceX5oFf.s:282    .text:0000000000000178 .L20
GAS LISTING /tmp/cceX5oFf.s 			page 38


     /tmp/cceX5oFf.s:322    .text:00000000000001b0 .L21
     /tmp/cceX5oFf.s:337    .text:00000000000001c0 .L31
     /tmp/cceX5oFf.s:384    .text:00000000000001f4 .L23
     /tmp/cceX5oFf.s:315    .text:00000000000001a8 .L22
     /tmp/cceX5oFf.s:400    .text:000000000000020c .L32
     /tmp/cceX5oFf.s:407    .text:000000000000021c .L33
     /tmp/cceX5oFf.s:376    .text:00000000000001f0 .L29
     /tmp/cceX5oFf.s:412    .text:0000000000000228 .L24
     /tmp/cceX5oFf.s:346    .text:00000000000001c8 .L34
     /tmp/cceX5oFf.s:359    .text:00000000000001d4 .L27
     /tmp/cceX5oFf.s:364    .text:00000000000001e0 .L28
     /tmp/cceX5oFf.s:496    .text:00000000000002a0 .L37
     /tmp/cceX5oFf.s:470    .text:0000000000000274 .L43
     /tmp/cceX5oFf.s:582    .text:000000000000030c .L46
     /tmp/cceX5oFf.s:589    .text:0000000000000314 .L47
     /tmp/cceX5oFf.s:566    .text:00000000000002f4 .L45
     /tmp/cceX5oFf.s:773    .text:0000000000000414 .L63
     /tmp/cceX5oFf.s:747    .text:00000000000003e8 .L54
     /tmp/cceX5oFf.s:694    .text:0000000000000398 .L69
     /tmp/cceX5oFf.s:701    .text:00000000000003a8 .L70
     /tmp/cceX5oFf.s:670    .text:000000000000037c .L61
     /tmp/cceX5oFf.s:706    .text:00000000000003b4 .L56
     /tmp/cceX5oFf.s:642    .text:0000000000000354 .L71
     /tmp/cceX5oFf.s:653    .text:0000000000000360 .L59
     /tmp/cceX5oFf.s:658    .text:000000000000036c .L60
     /tmp/cceX5oFf.s:741    .text:00000000000003e4 .L62
     /tmp/cceX5oFf.s:789    .text:000000000000041c .L64
     /tmp/cceX5oFf.s:678    .text:0000000000000380 .L55
     /tmp/cceX5oFf.s:873    .text:0000000000000484 .L75
     /tmp/cceX5oFf.s:847    .text:0000000000000464 .L74
     /tmp/cceX5oFf.s:866    .text:000000000000047c .L78
     /tmp/cceX5oFf.s:856    .text:0000000000000470 .L73
     /tmp/cceX5oFf.s:1026   .text:000000000000057c .L84
     /tmp/cceX5oFf.s:945    .text:00000000000004e8 .L91
     /tmp/cceX5oFf.s:1010   .text:0000000000000560 .L82
     /tmp/cceX5oFf.s:1039   .text:0000000000000584 .L85
     /tmp/cceX5oFf.s:1019   .text:0000000000000574 .L92
     /tmp/cceX5oFf.s:925    .text:00000000000004cc .L80
     /tmp/cceX5oFf.s:978    .text:0000000000000520 .L83
     /tmp/cceX5oFf.s:3072   .debug_abbrev:0000000000000000 .Ldebug_abbrev0
     /tmp/cceX5oFf.s:5391   .debug_str:000000000000083e .LASF155
     /tmp/cceX5oFf.s:5219   .debug_str:000000000000039e .LASF156
     /tmp/cceX5oFf.s:5361   .debug_str:0000000000000780 .LASF157
     /tmp/cceX5oFf.s:5      .text:0000000000000000 .Ltext0
     /tmp/cceX5oFf.s:1095   .text:00000000000005c0 .Letext0
     /tmp/cceX5oFf.s:5107   .debug_line:0000000000000000 .Ldebug_line0
     /tmp/cceX5oFf.s:5233   .debug_str:00000000000003f7 .LASF0
     /tmp/cceX5oFf.s:5253   .debug_str:0000000000000485 .LASF1
     /tmp/cceX5oFf.s:5333   .debug_str:00000000000006b1 .LASF2
     /tmp/cceX5oFf.s:5341   .debug_str:00000000000006e1 .LASF4
     /tmp/cceX5oFf.s:5237   .debug_str:0000000000000409 .LASF3
     /tmp/cceX5oFf.s:5125   .debug_str:0000000000000081 .LASF5
     /tmp/cceX5oFf.s:5309   .debug_str:0000000000000623 .LASF6
     /tmp/cceX5oFf.s:5303   .debug_str:00000000000005fe .LASF7
     /tmp/cceX5oFf.s:5245   .debug_str:000000000000044d .LASF8
     /tmp/cceX5oFf.s:5215   .debug_str:000000000000037a .LASF9
     /tmp/cceX5oFf.s:5223   .debug_str:00000000000003b6 .LASF10
GAS LISTING /tmp/cceX5oFf.s 			page 39


     /tmp/cceX5oFf.s:5163   .debug_str:00000000000001c1 .LASF11
     /tmp/cceX5oFf.s:5205   .debug_str:0000000000000334 .LASF12
     /tmp/cceX5oFf.s:5173   .debug_str:000000000000020a .LASF13
     /tmp/cceX5oFf.s:5161   .debug_str:00000000000001b1 .LASF14
     /tmp/cceX5oFf.s:5371   .debug_str:00000000000007dc .LASF15
     /tmp/cceX5oFf.s:5195   .debug_str:00000000000002ba .LASF16
     /tmp/cceX5oFf.s:5359   .debug_str:000000000000076a .LASF17
     /tmp/cceX5oFf.s:5147   .debug_str:000000000000012d .LASF25
     /tmp/cceX5oFf.s:5351   .debug_str:0000000000000734 .LASF29
     /tmp/cceX5oFf.s:5165   .debug_str:00000000000001d0 .LASF18
     /tmp/cceX5oFf.s:5251   .debug_str:0000000000000480 .LASF19
     /tmp/cceX5oFf.s:5295   .debug_str:00000000000005be .LASF20
     /tmp/cceX5oFf.s:5367   .debug_str:00000000000007c9 .LASF40
     /tmp/cceX5oFf.s:5143   .debug_str:0000000000000115 .LASF75
     /tmp/cceX5oFf.s:5131   .debug_str:00000000000000a5 .LASF77
     /tmp/cceX5oFf.s:5273   .debug_str:000000000000052d .LASF21
     /tmp/cceX5oFf.s:5395   .debug_str:0000000000000918 .LASF23
     /tmp/cceX5oFf.s:5135   .debug_str:00000000000000bf .LASF22
     /tmp/cceX5oFf.s:5343   .debug_str:00000000000006e8 .LASF24
     /tmp/cceX5oFf.s:5387   .debug_str:0000000000000831 .LASF27
     /tmp/cceX5oFf.s:5285   .debug_str:0000000000000578 .LASF36
     /tmp/cceX5oFf.s:5213   .debug_str:0000000000000370 .LASF26
     /tmp/cceX5oFf.s:5353   .debug_str:0000000000000740 .LASF103
     /tmp/cceX5oFf.s:5435   .debug_str:0000000000000a83 .LASF158
     /tmp/cceX5oFf.s:5229   .debug_str:00000000000003d9 .LASF159
     /tmp/cceX5oFf.s:5419   .debug_str:00000000000009ec .LASF28
     /tmp/cceX5oFf.s:5413   .debug_str:00000000000009c0 .LASF30
     /tmp/cceX5oFf.s:5249   .debug_str:000000000000047b .LASF31
     /tmp/cceX5oFf.s:5439   .debug_str:0000000000000ab2 .LASF33
     /tmp/cceX5oFf.s:5443   .debug_str:0000000000000ae8 .LASF32
     /tmp/cceX5oFf.s:5141   .debug_str:00000000000000fd .LASF34
     /tmp/cceX5oFf.s:5115   .debug_str:000000000000001b .LASF35
     /tmp/cceX5oFf.s:5423   .debug_str:0000000000000a14 .LASF37
     /tmp/cceX5oFf.s:5153   .debug_str:0000000000000151 .LASF38
     /tmp/cceX5oFf.s:5129   .debug_str:000000000000008d .LASF39
     /tmp/cceX5oFf.s:5357   .debug_str:0000000000000757 .LASF84
     /tmp/cceX5oFf.s:5157   .debug_str:000000000000017b .LASF160
     /tmp/cceX5oFf.s:5287   .debug_str:000000000000059e .LASF41
     /tmp/cceX5oFf.s:5279   .debug_str:0000000000000551 .LASF42
     /tmp/cceX5oFf.s:5375   .debug_str:00000000000007ef .LASF43
     /tmp/cceX5oFf.s:5203   .debug_str:000000000000031d .LASF49
     /tmp/cceX5oFf.s:5337   .debug_str:00000000000006cc .LASF161
     /tmp/cceX5oFf.s:5325   .debug_str:000000000000067a .LASF162
     /tmp/cceX5oFf.s:5329   .debug_str:0000000000000696 .LASF44
     /tmp/cceX5oFf.s:5159   .debug_str:0000000000000194 .LASF45
     /tmp/cceX5oFf.s:5267   .debug_str:0000000000000506 .LASF46
     /tmp/cceX5oFf.s:5197   .debug_str:00000000000002d0 .LASF47
     /tmp/cceX5oFf.s:5301   .debug_str:00000000000005f2 .LASF48
     /tmp/cceX5oFf.s:5421   .debug_str:00000000000009f6 .LASF50
     /tmp/cceX5oFf.s:5445   .debug_str:0000000000000af5 .LASF51
     /tmp/cceX5oFf.s:5437   .debug_str:0000000000000a97 .LASF52
     /tmp/cceX5oFf.s:5349   .debug_str:0000000000000729 .LASF53
     /tmp/cceX5oFf.s:5243   .debug_str:0000000000000430 .LASF54
     /tmp/cceX5oFf.s:5319   .debug_str:0000000000000658 .LASF55
     /tmp/cceX5oFf.s:5119   .debug_str:0000000000000033 .LASF56
     /tmp/cceX5oFf.s:5417   .debug_str:00000000000009de .LASF57
     /tmp/cceX5oFf.s:5363   .debug_str:0000000000000797 .LASF58
GAS LISTING /tmp/cceX5oFf.s 			page 40


     /tmp/cceX5oFf.s:5239   .debug_str:000000000000041b .LASF59
     /tmp/cceX5oFf.s:5191   .debug_str:000000000000027a .LASF60
     /tmp/cceX5oFf.s:5379   .debug_str:000000000000080b .LASF61
     /tmp/cceX5oFf.s:5181   .debug_str:0000000000000257 .LASF62
     /tmp/cceX5oFf.s:5381   .debug_str:0000000000000813 .LASF63
     /tmp/cceX5oFf.s:5283   .debug_str:0000000000000561 .LASF64
     /tmp/cceX5oFf.s:5149   .debug_str:0000000000000137 .LASF65
     /tmp/cceX5oFf.s:5407   .debug_str:000000000000096c .LASF66
     /tmp/cceX5oFf.s:5261   .debug_str:00000000000004cc .LASF67
     /tmp/cceX5oFf.s:5415   .debug_str:00000000000009c5 .LASF68
     /tmp/cceX5oFf.s:5317   .debug_str:000000000000064d .LASF69
     /tmp/cceX5oFf.s:5393   .debug_str:0000000000000902 .LASF70
     /tmp/cceX5oFf.s:5327   .debug_str:0000000000000691 .LASF163
     /tmp/cceX5oFf.s:5315   .debug_str:0000000000000645 .LASF71
     /tmp/cceX5oFf.s:5271   .debug_str:000000000000051b .LASF72
     /tmp/cceX5oFf.s:5369   .debug_str:00000000000007ce .LASF73
     /tmp/cceX5oFf.s:5179   .debug_str:0000000000000230 .LASF74
     /tmp/cceX5oFf.s:5255   .debug_str:0000000000000498 .LASF76
     /tmp/cceX5oFf.s:5397   .debug_str:0000000000000930 .LASF78
     /tmp/cceX5oFf.s:5389   .debug_str:0000000000000836 .LASF79
     /tmp/cceX5oFf.s:5377   .debug_str:0000000000000802 .LASF80
     /tmp/cceX5oFf.s:5221   .debug_str:00000000000003aa .LASF81
     /tmp/cceX5oFf.s:5269   .debug_str:000000000000050e .LASF82
     /tmp/cceX5oFf.s:5209   .debug_str:0000000000000348 .LASF83
     /tmp/cceX5oFf.s:5335   .debug_str:00000000000006bf .LASF85
     /tmp/cceX5oFf.s:5313   .debug_str:0000000000000640 .LASF86
     /tmp/cceX5oFf.s:5123   .debug_str:0000000000000075 .LASF87
     /tmp/cceX5oFf.s:5185   .debug_str:0000000000000267 .LASF88
     /tmp/cceX5oFf.s:5169   .debug_str:00000000000001ec .LASF89
     /tmp/cceX5oFf.s:5441   .debug_str:0000000000000ad1 .LASF164
     /tmp/cceX5oFf.s:5113   .debug_str:0000000000000016 .LASF90
     /tmp/cceX5oFf.s:5355   .debug_str:0000000000000751 .LASF91
     /tmp/cceX5oFf.s:5405   .debug_str:0000000000000964 .LASF92
     /tmp/cceX5oFf.s:5399   .debug_str:0000000000000940 .LASF93
     /tmp/cceX5oFf.s:5403   .debug_str:000000000000095b .LASF94
     /tmp/cceX5oFf.s:5297   .debug_str:00000000000005c8 .LASF95
     /tmp/cceX5oFf.s:5281   .debug_str:0000000000000556 .LASF96
     /tmp/cceX5oFf.s:5289   .debug_str:00000000000005a3 .LASF97
     /tmp/cceX5oFf.s:5385   .debug_str:0000000000000823 .LASF98
     /tmp/cceX5oFf.s:5331   .debug_str:000000000000069f .LASF99
     /tmp/cceX5oFf.s:5311   .debug_str:000000000000062a .LASF100
     /tmp/cceX5oFf.s:5151   .debug_str:0000000000000143 .LASF165
     /tmp/cceX5oFf.s:5263   .debug_str:00000000000004d9 .LASF166
     /tmp/cceX5oFf.s:5175   .debug_str:000000000000021a .LASF101
     /tmp/cceX5oFf.s:5121   .debug_str:000000000000004d .LASF102
     /tmp/cceX5oFf.s:5345   .debug_str:0000000000000703 .LASF104
     /tmp/cceX5oFf.s:5339   .debug_str:00000000000006d6 .LASF105
     /tmp/cceX5oFf.s:5429   .debug_str:0000000000000a59 .LASF106
     /tmp/cceX5oFf.s:5307   .debug_str:0000000000000616 .LASF107
     /tmp/cceX5oFf.s:5111   .debug_str:000000000000000f .LASF108
     /tmp/cceX5oFf.s:5171   .debug_str:00000000000001ff .LASF109
     /tmp/cceX5oFf.s:5431   .debug_str:0000000000000a64 .LASF110
     /tmp/cceX5oFf.s:5409   .debug_str:0000000000000983 .LASF111
     /tmp/cceX5oFf.s:5217   .debug_str:000000000000038a .LASF112
     /tmp/cceX5oFf.s:5425   .debug_str:0000000000000a2d .LASF113
     /tmp/cceX5oFf.s:5247   .debug_str:0000000000000460 .LASF114
     /tmp/cceX5oFf.s:5291   .debug_str:00000000000005ab .LASF115
GAS LISTING /tmp/cceX5oFf.s 			page 41


     /tmp/cceX5oFf.s:5257   .debug_str:000000000000049e .LASF116
     /tmp/cceX5oFf.s:5137   .debug_str:00000000000000c9 .LASF117
     /tmp/cceX5oFf.s:5211   .debug_str:0000000000000354 .LASF118
     /tmp/cceX5oFf.s:5187   .debug_str:0000000000000270 .LASF119
     /tmp/cceX5oFf.s:5167   .debug_str:00000000000001d5 .LASF120
     /tmp/cceX5oFf.s:5373   .debug_str:00000000000007e8 .LASF121
     /tmp/cceX5oFf.s:5433   .debug_str:0000000000000a6a .LASF122
     /tmp/cceX5oFf.s:5227   .debug_str:00000000000003d3 .LASF123
     /tmp/cceX5oFf.s:5201   .debug_str:0000000000000304 .LASF124
     /tmp/cceX5oFf.s:5177   .debug_str:0000000000000228 .LASF125
     /tmp/cceX5oFf.s:5299   .debug_str:00000000000005d4 .LASF126
     /tmp/cceX5oFf.s:5401   .debug_str:000000000000094a .LASF127
     /tmp/cceX5oFf.s:5265   .debug_str:00000000000004f2 .LASF128
     /tmp/cceX5oFf.s:5277   .debug_str:000000000000053c .LASF129
     /tmp/cceX5oFf.s:5259   .debug_str:00000000000004b8 .LASF130
     /tmp/cceX5oFf.s:5347   .debug_str:0000000000000714 .LASF131
     /tmp/cceX5oFf.s:5183   .debug_str:000000000000025d .LASF132
     /tmp/cceX5oFf.s:5231   .debug_str:00000000000003f1 .LASF133
     /tmp/cceX5oFf.s:5199   .debug_str:00000000000002ec .LASF134
     /tmp/cceX5oFf.s:5117   .debug_str:000000000000002b .LASF135
     /tmp/cceX5oFf.s:5155   .debug_str:0000000000000161 .LASF136
     /tmp/cceX5oFf.s:5321   .debug_str:0000000000000661 .LASF137
     /tmp/cceX5oFf.s:5383   .debug_str:000000000000081e .LASF138
     /tmp/cceX5oFf.s:5427   .debug_str:0000000000000a36 .LASF167
     /tmp/cceX5oFf.s:5411   .debug_str:000000000000098e .LASF139
     /tmp/cceX5oFf.s:1055   .text:000000000000058c .LFB78
     /tmp/cceX5oFf.s:1081   .text:00000000000005c0 .LFE78
     /tmp/cceX5oFf.s:1071   .text:00000000000005b0 .LVL101
     /tmp/cceX5oFf.s:5139   .debug_str:00000000000000d3 .LASF140
     /tmp/cceX5oFf.s:9      .text:0000000000000000 .LFB77
     /tmp/cceX5oFf.s:53     .text:0000000000000040 .LFE77
     /tmp/cceX5oFf.s:5225   .debug_str:00000000000003c4 .LASF141
     /tmp/cceX5oFf.s:5293   .debug_str:00000000000005b3 .LASF142
     /tmp/cceX5oFf.s:38     .text:000000000000002c .LBB46
     /tmp/cceX5oFf.s:49     .text:000000000000003c .LBE46
     /tmp/cceX5oFf.s:4288   .debug_loc:0000000000000000 .LLST0
     /tmp/cceX5oFf.s:5207   .debug_str:0000000000000343 .LASF143
     /tmp/cceX5oFf.s:5193   .debug_str:000000000000029b .LASF149
     /tmp/cceX5oFf.s:5109   .debug_str:0000000000000000 .LASF144
     /tmp/cceX5oFf.s:5365   .debug_str:00000000000007c1 .LASF145
     /tmp/cceX5oFf.s:5241   .debug_str:0000000000000427 .LASF146
     /tmp/cceX5oFf.s:5189   .debug_str:0000000000000275 .LASF147
     /tmp/cceX5oFf.s:5235   .debug_str:0000000000000404 .LASF148
     /tmp/cceX5oFf.s:5145   .debug_str:000000000000011a .LASF150
     /tmp/cceX5oFf.s:885    .text:000000000000048c .LFB64
     /tmp/cceX5oFf.s:1050   .text:000000000000058c .LFE64
     /tmp/cceX5oFf.s:4297   .debug_loc:000000000000002c .LLST40
     /tmp/cceX5oFf.s:5305   .debug_str:0000000000000611 .LASF151
     /tmp/cceX5oFf.s:4334   .debug_loc:00000000000000c7 .LLST41
     /tmp/cceX5oFf.s:952    .text:00000000000004f4 .LBB113
     /tmp/cceX5oFf.s:5063   .debug_ranges:0000000000000000 .Ldebug_ranges0
     /tmp/cceX5oFf.s:4368   .debug_loc:000000000000015f .LLST42
     /tmp/cceX5oFf.s:4379   .debug_loc:0000000000000195 .LLST43
     /tmp/cceX5oFf.s:4394   .debug_loc:00000000000001dd .LLST44
     /tmp/cceX5oFf.s:954    .text:00000000000004f4 .LBB115
     /tmp/cceX5oFf.s:961    .text:0000000000000500 .LBE115
     /tmp/cceX5oFf.s:4405   .debug_loc:0000000000000213 .LLST45
GAS LISTING /tmp/cceX5oFf.s 			page 42


     /tmp/cceX5oFf.s:959    .text:0000000000000500 .LVL91
     /tmp/cceX5oFf.s:962    .text:0000000000000500 .LBB117
     /tmp/cceX5oFf.s:969    .text:0000000000000508 .LBE117
     /tmp/cceX5oFf.s:4413   .debug_loc:0000000000000237 .LLST46
     /tmp/cceX5oFf.s:4421   .debug_loc:000000000000025b .LLST47
     /tmp/cceX5oFf.s:4428   .debug_loc:000000000000027e .LLST48
     /tmp/cceX5oFf.s:993    .text:000000000000053c .LVL95
     /tmp/cceX5oFf.s:824    .text:0000000000000440 .LFB63
     /tmp/cceX5oFf.s:879    .text:000000000000048c .LFE63
     /tmp/cceX5oFf.s:4435   .debug_loc:00000000000002a1 .LLST39
     /tmp/cceX5oFf.s:605    .text:000000000000031c .LFB62
     /tmp/cceX5oFf.s:818    .text:0000000000000440 .LFE62
     /tmp/cceX5oFf.s:4471   .debug_loc:000000000000032c .LLST29
     /tmp/cceX5oFf.s:4496   .debug_loc:000000000000038e .LLST30
     /tmp/cceX5oFf.s:5133   .debug_str:00000000000000ba .LASF152
     /tmp/cceX5oFf.s:4515   .debug_loc:00000000000003ea .LLST31
     /tmp/cceX5oFf.s:643    .text:0000000000000354 .LBB101
     /tmp/cceX5oFf.s:4527   .debug_loc:0000000000000421 .LLST32
     /tmp/cceX5oFf.s:4538   .debug_loc:0000000000000457 .LLST33
     /tmp/cceX5oFf.s:4553   .debug_loc:000000000000049f .LLST34
     /tmp/cceX5oFf.s:4580   .debug_loc:0000000000000521 .LLST35
     /tmp/cceX5oFf.s:4600   .debug_loc:000000000000057e .LLST36
     /tmp/cceX5oFf.s:665    .text:0000000000000374 .LBB105
     /tmp/cceX5oFf.s:672    .text:000000000000037c .LBE105
     /tmp/cceX5oFf.s:4611   .debug_loc:00000000000005b4 .LLST37
     /tmp/cceX5oFf.s:669    .text:000000000000037c .LVL62
     /tmp/cceX5oFf.s:735    .text:00000000000003d8 .LBB110
     /tmp/cceX5oFf.s:743    .text:00000000000003e4 .LBE110
     /tmp/cceX5oFf.s:4618   .debug_loc:00000000000005d7 .LLST38
     /tmp/cceX5oFf.s:740    .text:00000000000003e4 .LVL71
     /tmp/cceX5oFf.s:725    .text:00000000000003d0 .LVL68
     /tmp/cceX5oFf.s:508    .text:00000000000002a8 .LFB61
     /tmp/cceX5oFf.s:599    .text:000000000000031c .LFE61
     /tmp/cceX5oFf.s:5275   .debug_str:0000000000000535 .LASF153
     /tmp/cceX5oFf.s:4625   .debug_loc:00000000000005fa .LLST23
     /tmp/cceX5oFf.s:4658   .debug_loc:0000000000000682 .LLST24
     /tmp/cceX5oFf.s:531    .text:00000000000002cc .LBB87
     /tmp/cceX5oFf.s:541    .text:00000000000002d8 .LBE87
     /tmp/cceX5oFf.s:4683   .debug_loc:00000000000006e4 .LLST25
     /tmp/cceX5oFf.s:539    .text:00000000000002d8 .LVL49
     /tmp/cceX5oFf.s:542    .text:00000000000002d8 .LBB89
     /tmp/cceX5oFf.s:559    .text:00000000000002e8 .LBE89
     /tmp/cceX5oFf.s:4692   .debug_loc:0000000000000709 .LLST26
     /tmp/cceX5oFf.s:4704   .debug_loc:0000000000000734 .LLST27
     /tmp/cceX5oFf.s:547    .text:00000000000002dc .LBB91
     /tmp/cceX5oFf.s:554    .text:00000000000002e4 .LBE91
     /tmp/cceX5oFf.s:4711   .debug_loc:0000000000000757 .LLST28
     /tmp/cceX5oFf.s:253    .text:000000000000014c .LFB60
     /tmp/cceX5oFf.s:439    .text:0000000000000250 .LFE60
     /tmp/cceX5oFf.s:4720   .debug_loc:000000000000077c .LLST10
     /tmp/cceX5oFf.s:5127   .debug_str:0000000000000088 .LASF154
     /tmp/cceX5oFf.s:4749   .debug_loc:00000000000007f1 .LLST11
     /tmp/cceX5oFf.s:274    .text:000000000000016c .LBB69
     /tmp/cceX5oFf.s:285    .text:0000000000000178 .LBE69
     /tmp/cceX5oFf.s:4756   .debug_loc:0000000000000814 .LLST12
     /tmp/cceX5oFf.s:301    .text:0000000000000194 .LBB71
     /tmp/cceX5oFf.s:4765   .debug_loc:0000000000000839 .LLST13
GAS LISTING /tmp/cceX5oFf.s 			page 43


     /tmp/cceX5oFf.s:4776   .debug_loc:000000000000086f .LLST14
     /tmp/cceX5oFf.s:317    .text:00000000000001a8 .LBB73
     /tmp/cceX5oFf.s:324    .text:00000000000001b0 .LBE73
     /tmp/cceX5oFf.s:4784   .debug_loc:0000000000000893 .LLST15
     /tmp/cceX5oFf.s:321    .text:00000000000001b0 .LVL26
     /tmp/cceX5oFf.s:328    .text:00000000000001b0 .LBB76
     /tmp/cceX5oFf.s:4791   .debug_loc:00000000000008b6 .LLST16
     /tmp/cceX5oFf.s:4802   .debug_loc:00000000000008ec .LLST17
     /tmp/cceX5oFf.s:4817   .debug_loc:0000000000000934 .LLST18
     /tmp/cceX5oFf.s:4844   .debug_loc:00000000000009b6 .LLST19
     /tmp/cceX5oFf.s:4864   .debug_loc:0000000000000a13 .LLST20
     /tmp/cceX5oFf.s:371    .text:00000000000001e8 .LBB80
     /tmp/cceX5oFf.s:378    .text:00000000000001f0 .LBE80
     /tmp/cceX5oFf.s:4875   .debug_loc:0000000000000a49 .LLST21
     /tmp/cceX5oFf.s:375    .text:00000000000001f0 .LVL32
     /tmp/cceX5oFf.s:421    .text:0000000000000234 .LVL38
     /tmp/cceX5oFf.s:59     .text:0000000000000040 .LFB59
     /tmp/cceX5oFf.s:157    .text:00000000000000dc .LFE59
     /tmp/cceX5oFf.s:4882   .debug_loc:0000000000000a6c .LLST1
     /tmp/cceX5oFf.s:81     .text:0000000000000068 .LBB49
     /tmp/cceX5oFf.s:4904   .debug_loc:0000000000000acb .LLST2
     /tmp/cceX5oFf.s:4915   .debug_loc:0000000000000b01 .LLST3
     /tmp/cceX5oFf.s:4936   .debug_loc:0000000000000b50 .LLST4
     /tmp/cceX5oFf.s:83     .text:0000000000000068 .LBB51
     /tmp/cceX5oFf.s:91     .text:0000000000000074 .LBE51
     /tmp/cceX5oFf.s:4947   .debug_loc:0000000000000b86 .LLST5
     /tmp/cceX5oFf.s:89     .text:0000000000000074 .LVL6
     /tmp/cceX5oFf.s:92     .text:0000000000000074 .LBB53
     /tmp/cceX5oFf.s:99     .text:000000000000007c .LBE53
     /tmp/cceX5oFf.s:4955   .debug_loc:0000000000000baa .LLST6
     /tmp/cceX5oFf.s:4963   .debug_loc:0000000000000bce .LLST7
     /tmp/cceX5oFf.s:4970   .debug_loc:0000000000000bf1 .LLST8
     /tmp/cceX5oFf.s:129    .text:00000000000000b8 .LVL9
     /tmp/cceX5oFf.s:445    .text:0000000000000250 .LFB58
     /tmp/cceX5oFf.s:502    .text:00000000000002a8 .LFE58
     /tmp/cceX5oFf.s:4977   .debug_loc:0000000000000c14 .LLST22
     /tmp/cceX5oFf.s:483    .text:000000000000028c .LVL43
     /tmp/cceX5oFf.s:163    .text:00000000000000dc .LFB57
     /tmp/cceX5oFf.s:247    .text:000000000000014c .LFE57
     /tmp/cceX5oFf.s:5013   .debug_loc:0000000000000c9f .LLST9
     /tmp/cceX5oFf.s:224    .text:0000000000000138 .LVL16
     /tmp/cceX5oFf.s:5323   .debug_str:0000000000000666 .LASF168
     /tmp/cceX5oFf.s:37     .text:000000000000002c .LVL1
     /tmp/cceX5oFf.s:46     .text:000000000000003c .LVL2
     /tmp/cceX5oFf.s:888    .text:000000000000048c .LVL85
     /tmp/cceX5oFf.s:924    .text:00000000000004cc .LVL86
     /tmp/cceX5oFf.s:935    .text:00000000000004d8 .LVL87
     /tmp/cceX5oFf.s:944    .text:00000000000004e8 .LVL89
     /tmp/cceX5oFf.s:1025   .text:000000000000057c .LVL98
     /tmp/cceX5oFf.s:1035   .text:0000000000000580 .LVL99
     /tmp/cceX5oFf.s:1038   .text:0000000000000584 .LVL100
     /tmp/cceX5oFf.s:938    .text:00000000000004dc .LVL88
     /tmp/cceX5oFf.s:951    .text:00000000000004f4 .LVL90
     /tmp/cceX5oFf.s:979    .text:0000000000000520 .LVL93
     /tmp/cceX5oFf.s:1009   .text:0000000000000560 .LVL96
     /tmp/cceX5oFf.s:1018   .text:0000000000000574 .LVL97
     /tmp/cceX5oFf.s:967    .text:0000000000000508 .LVL92
GAS LISTING /tmp/cceX5oFf.s 			page 44


     /tmp/cceX5oFf.s:991    .text:0000000000000534 .LVL94
     /tmp/cceX5oFf.s:827    .text:0000000000000440 .LVL79
     /tmp/cceX5oFf.s:855    .text:0000000000000470 .LVL80
     /tmp/cceX5oFf.s:865    .text:000000000000047c .LVL81
     /tmp/cceX5oFf.s:870    .text:0000000000000480 .LVL82
     /tmp/cceX5oFf.s:872    .text:0000000000000484 .LVL83
     /tmp/cceX5oFf.s:876    .text:0000000000000488 .LVL84
     /tmp/cceX5oFf.s:608    .text:000000000000031c .LVL57
     /tmp/cceX5oFf.s:641    .text:0000000000000354 .LVL59
     /tmp/cceX5oFf.s:772    .text:0000000000000414 .LVL75
     /tmp/cceX5oFf.s:785    .text:0000000000000418 .LVL76
     /tmp/cceX5oFf.s:638    .text:0000000000000350 .LVL58
     /tmp/cceX5oFf.s:730    .text:00000000000003d4 .LVL69
     /tmp/cceX5oFf.s:746    .text:00000000000003e8 .LVL72
     /tmp/cceX5oFf.s:788    .text:000000000000041c .LVL77
     /tmp/cceX5oFf.s:807    .text:000000000000042c .LVL78
     /tmp/cceX5oFf.s:705    .text:00000000000003b4 .LVL67
     /tmp/cceX5oFf.s:763    .text:0000000000000404 .LVL73
     /tmp/cceX5oFf.s:661    .text:0000000000000370 .LVL60
     /tmp/cceX5oFf.s:677    .text:0000000000000380 .LVL63
     /tmp/cceX5oFf.s:689    .text:0000000000000390 .LVL65
     /tmp/cceX5oFf.s:693    .text:0000000000000398 .LVL66
     /tmp/cceX5oFf.s:768    .text:000000000000040c .LVL74
     /tmp/cceX5oFf.s:686    .text:000000000000038c .LVL64
     /tmp/cceX5oFf.s:664    .text:0000000000000374 .LVL61
     /tmp/cceX5oFf.s:734    .text:00000000000003d8 .LVL70
     /tmp/cceX5oFf.s:511    .text:00000000000002a8 .LVL46
     /tmp/cceX5oFf.s:537    .text:00000000000002d0 .LVL48
     /tmp/cceX5oFf.s:575    .text:0000000000000300 .LVL53
     /tmp/cceX5oFf.s:581    .text:000000000000030c .LVL54
     /tmp/cceX5oFf.s:585    .text:0000000000000310 .LVL55
     /tmp/cceX5oFf.s:588    .text:0000000000000314 .LVL56
     /tmp/cceX5oFf.s:530    .text:00000000000002cc .LVL47
     /tmp/cceX5oFf.s:557    .text:00000000000002e8 .LVL52
     /tmp/cceX5oFf.s:546    .text:00000000000002dc .LVL50
     /tmp/cceX5oFf.s:552    .text:00000000000002e4 .LVL51
     /tmp/cceX5oFf.s:256    .text:000000000000014c .LVL20
     /tmp/cceX5oFf.s:305    .text:0000000000000198 .LVL23
     /tmp/cceX5oFf.s:336    .text:00000000000001c0 .LVL28
     /tmp/cceX5oFf.s:345    .text:00000000000001c8 .LVL29
     /tmp/cceX5oFf.s:283    .text:0000000000000178 .LVL22
     /tmp/cceX5oFf.s:430    .text:0000000000000240 .LVL39
     /tmp/cceX5oFf.s:273    .text:000000000000016c .LVL21
     /tmp/cceX5oFf.s:308    .text:000000000000019c .LVL24
     /tmp/cceX5oFf.s:316    .text:00000000000001a8 .LVL25
     /tmp/cceX5oFf.s:411    .text:0000000000000228 .LVL37
     /tmp/cceX5oFf.s:332    .text:00000000000001b8 .LVL27
     /tmp/cceX5oFf.s:367    .text:00000000000001e4 .LVL30
     /tmp/cceX5oFf.s:383    .text:00000000000001f4 .LVL33
     /tmp/cceX5oFf.s:395    .text:0000000000000204 .LVL35
     /tmp/cceX5oFf.s:399    .text:000000000000020c .LVL36
     /tmp/cceX5oFf.s:392    .text:0000000000000200 .LVL34
     /tmp/cceX5oFf.s:370    .text:00000000000001e8 .LVL31
     /tmp/cceX5oFf.s:62     .text:0000000000000040 .LVL3
     /tmp/cceX5oFf.s:87     .text:000000000000006c .LVL5
     /tmp/cceX5oFf.s:139    .text:00000000000000c4 .LVL10
     /tmp/cceX5oFf.s:145    .text:00000000000000d0 .LVL11
GAS LISTING /tmp/cceX5oFf.s 			page 45


     /tmp/cceX5oFf.s:80     .text:0000000000000068 .LVL4
     /tmp/cceX5oFf.s:109    .text:000000000000008c .LVL8
     /tmp/cceX5oFf.s:97     .text:000000000000007c .LVL7
     /tmp/cceX5oFf.s:448    .text:0000000000000250 .LVL40
     /tmp/cceX5oFf.s:466    .text:0000000000000270 .LVL41
     /tmp/cceX5oFf.s:469    .text:0000000000000274 .LVL42
     /tmp/cceX5oFf.s:495    .text:00000000000002a0 .LVL44
     /tmp/cceX5oFf.s:499    .text:00000000000002a4 .LVL45
     /tmp/cceX5oFf.s:166    .text:00000000000000dc .LVL12
     /tmp/cceX5oFf.s:195    .text:0000000000000110 .LVL13
     /tmp/cceX5oFf.s:214    .text:0000000000000128 .LVL14
     /tmp/cceX5oFf.s:218    .text:0000000000000130 .LVL15
     /tmp/cceX5oFf.s:226    .text:000000000000013c .LVL17
     /tmp/cceX5oFf.s:234    .text:0000000000000140 .LVL18
     /tmp/cceX5oFf.s:237    .text:0000000000000144 .LVL19
     /tmp/cceX5oFf.s:1102   .debug_info:0000000000000000 .Ldebug_info0
     /tmp/cceX5oFf.s:111    .text:000000000000008c .LBE49
     /tmp/cceX5oFf.s:148    .text:00000000000000d0 .LBB56
     /tmp/cceX5oFf.s:155    .text:00000000000000dc .LBE56
     /tmp/cceX5oFf.s:326    .text:00000000000001b0 .LBE71
     /tmp/cceX5oFf.s:340    .text:00000000000001c0 .LBB85
     /tmp/cceX5oFf.s:348    .text:00000000000001c8 .LBE85
     /tmp/cceX5oFf.s:339    .text:00000000000001c0 .LBE76
     /tmp/cceX5oFf.s:349    .text:00000000000001c8 .LBB86
     /tmp/cceX5oFf.s:416    .text:0000000000000228 .LBE86
     /tmp/cceX5oFf.s:352    .text:00000000000001c8 .LBB79
     /tmp/cceX5oFf.s:379    .text:00000000000001f0 .LBE79
     /tmp/cceX5oFf.s:401    .text:000000000000020c .LBB82
     /tmp/cceX5oFf.s:413    .text:0000000000000228 .LBE82
     /tmp/cceX5oFf.s:710    .text:00000000000003b4 .LBE101
     /tmp/cceX5oFf.s:764    .text:0000000000000404 .LBB112
     /tmp/cceX5oFf.s:782    .text:0000000000000414 .LBE112
     /tmp/cceX5oFf.s:646    .text:0000000000000354 .LBB104
     /tmp/cceX5oFf.s:673    .text:000000000000037c .LBE104
     /tmp/cceX5oFf.s:695    .text:0000000000000398 .LBB107
     /tmp/cceX5oFf.s:707    .text:00000000000003b4 .LBE107
     /tmp/cceX5oFf.s:981    .text:0000000000000520 .LBE113
     /tmp/cceX5oFf.s:1011   .text:0000000000000560 .LBB120
     /tmp/cceX5oFf.s:1021   .text:0000000000000574 .LBE120

UNDEFINED SYMBOLS
_ZN3TCB7runningE
_ZN9Allocator7_mallocEm
_ZN3TCB16timeSliceCounterE
_ZN3TCB8dispatchEv
_ZN9Allocator9_mem_freeEPv
_ZN9Scheduler3putEP3TCB
