GAS LISTING /tmp/ccXnzfFq.s 			page 1


   1              		.file	"syscall_c.cpp"
   2              		.option pic
   3              		.option norelax
   4              		.text
   5              	.Ltext0:
   6              		.align	2
   7              		.globl	_Z5scallmmmmmm
   9              	_Z5scallmmmmmm:
  10              	.LFB57:
  11              		.file 1 "src/syscall_c.cpp"
   1:src/syscall_c.cpp **** //
   2:src/syscall_c.cpp **** // Created by os on 5/16/24.
   3:src/syscall_c.cpp **** //
   4:src/syscall_c.cpp **** 
   5:src/syscall_c.cpp **** #include "../h/syscall_c.h"
   6:src/syscall_c.cpp **** 
   7:src/syscall_c.cpp **** void scall(uint64 opc, uint64 p1 = 0, uint64 p2 = 0, uint64 p3 = 0,uint64 p4 = 0,uint64 p5=0){
  12              		.loc 1 7 94
  13              		.cfi_startproc
  14              	.LVL0:
  15 0000 130101FF 		addi	sp,sp,-16
  16              		.cfi_def_cfa_offset 16
  17 0004 23348100 		sd	s0,8(sp)
  18              		.cfi_offset 8, -8
  19 0008 13040101 		addi	s0,sp,16
  20              		.cfi_def_cfa 8, 0
   8:src/syscall_c.cpp ****     __asm__ volatile("ecall");
  21              		.loc 1 8 5
  22              		.loc 1 8 30 is_stmt 0
  23              	#APP
  24              	# 8 "src/syscall_c.cpp" 1
   9              	}
  25              		ecall
  26              	# 0 "" 2
  27              		.loc 1 9 1
  28              	#NO_APP
  29 0010 03348100 		ld	s0,8(sp)
  30              		.cfi_restore 8
  31              		.cfi_def_cfa 2, 16
  32 0014 13010101 		addi	sp,sp,16
  33              		.cfi_def_cfa_offset 0
  34 0018 67800000 		jr	ra
  35              		.cfi_endproc
  36              	.LFE57:
  38              		.align	2
  39              		.globl	_Z9mem_allocm
  41              	_Z9mem_allocm:
  42              	.LFB58:
  10:src/syscall_c.cpp **** 
  11:src/syscall_c.cpp **** void *mem_alloc(size_t size) {
  43              		.loc 1 11 30 is_stmt 1
  44              		.cfi_startproc
  45              	.LVL1:
  46 001c 130101FF 		addi	sp,sp,-16
  47              		.cfi_def_cfa_offset 16
  48 0020 23341100 		sd	ra,8(sp)
  49 0024 23308100 		sd	s0,0(sp)
GAS LISTING /tmp/ccXnzfFq.s 			page 2


  50              		.cfi_offset 1, -8
  51              		.cfi_offset 8, -16
  52 0028 13040101 		addi	s0,sp,16
  53              		.cfi_def_cfa 8, 0
  12:src/syscall_c.cpp ****     volatile void *retVal;
  54              		.loc 1 12 5
  13:src/syscall_c.cpp ****     size = (size + MEM_BLOCK_SIZE - 1)/MEM_BLOCK_SIZE;
  55              		.loc 1 13 5
  56              		.loc 1 13 35 is_stmt 0
  57 002c 9305F503 		addi	a1,a0,63
  58              	.LVL2:
  14:src/syscall_c.cpp ****     scall(MEM_ALLOC, (uint64) size);
  59              		.loc 1 14 5 is_stmt 1
  60              		.loc 1 14 10 is_stmt 0
  61 0030 93070000 		li	a5,0
  62 0034 13070000 		li	a4,0
  63 0038 93060000 		li	a3,0
  64 003c 13060000 		li	a2,0
  65 0040 93D56500 		srli	a1,a1,6
  66              	.LVL3:
  67 0044 13051000 		li	a0,1
  68 0048 97000000 		call	_Z5scallmmmmmm
  68      E7800000 
  69              	.LVL4:
  15:src/syscall_c.cpp ****     __asm__ volatile ("mv %[retVal], a0" : [retVal] "=r"(retVal));
  70              		.loc 1 15 5 is_stmt 1
  71              		.loc 1 15 66 is_stmt 0
  72              	#APP
  73              	# 15 "src/syscall_c.cpp" 1
  16              	    return (void*) retVal;
  74              		mv a0, a0
  75              	# 0 "" 2
  76              	.LVL5:
  77              		.loc 1 16 5 is_stmt 1
  17:src/syscall_c.cpp **** }
  78              		.loc 1 17 1 is_stmt 0
  79              	#NO_APP
  80 0054 83308100 		ld	ra,8(sp)
  81              		.cfi_restore 1
  82 0058 03340100 		ld	s0,0(sp)
  83              		.cfi_restore 8
  84              		.cfi_def_cfa 2, 16
  85 005c 13010101 		addi	sp,sp,16
  86              		.cfi_def_cfa_offset 0
  87 0060 67800000 		jr	ra
  88              		.cfi_endproc
  89              	.LFE58:
  91              		.align	2
  92              		.globl	_Z8mem_freePv
  94              	_Z8mem_freePv:
  95              	.LFB59:
  18:src/syscall_c.cpp **** 
  19:src/syscall_c.cpp **** int mem_free(void *mem){
  96              		.loc 1 19 24 is_stmt 1
  97              		.cfi_startproc
  98              	.LVL6:
  99 0064 130101FE 		addi	sp,sp,-32
GAS LISTING /tmp/ccXnzfFq.s 			page 3


 100              		.cfi_def_cfa_offset 32
 101 0068 233C1100 		sd	ra,24(sp)
 102 006c 23388100 		sd	s0,16(sp)
 103              		.cfi_offset 1, -8
 104              		.cfi_offset 8, -16
 105 0070 13040102 		addi	s0,sp,32
 106              		.cfi_def_cfa 8, 0
 107 0074 93050500 		mv	a1,a0
  20:src/syscall_c.cpp ****     volatile int retVal;
 108              		.loc 1 20 5
  21:src/syscall_c.cpp ****     scall(MEM_FREE,(uint64) mem);
 109              		.loc 1 21 5
 110              		.loc 1 21 10 is_stmt 0
 111 0078 93070000 		li	a5,0
 112 007c 13070000 		li	a4,0
 113 0080 93060000 		li	a3,0
 114 0084 13060000 		li	a2,0
 115 0088 13052000 		li	a0,2
 116              	.LVL7:
 117 008c 97000000 		call	_Z5scallmmmmmm
 117      E7800000 
 118              	.LVL8:
  22:src/syscall_c.cpp ****     __asm__ volatile ("mv %[retVal], a0" : [retVal] "=r"(retVal));
 119              		.loc 1 22 5 is_stmt 1
 120              		.loc 1 22 66 is_stmt 0
 121              	#APP
 122              	# 22 "src/syscall_c.cpp" 1
  23              	    return (int) retVal;
 123              		mv a5, a0
 124              	# 0 "" 2
 125              	#NO_APP
 126 0098 2326F4FE 		sw	a5,-20(s0)
 127              		.loc 1 23 5 is_stmt 1
 128              		.loc 1 23 18 is_stmt 0
 129 009c 0325C4FE 		lw	a0,-20(s0)
  24:src/syscall_c.cpp **** }
 130              		.loc 1 24 1
 131 00a0 1B050500 		sext.w	a0,a0
 132 00a4 83308101 		ld	ra,24(sp)
 133              		.cfi_restore 1
 134 00a8 03340101 		ld	s0,16(sp)
 135              		.cfi_restore 8
 136              		.cfi_def_cfa 2, 32
 137 00ac 13010102 		addi	sp,sp,32
 138              		.cfi_def_cfa_offset 0
 139 00b0 67800000 		jr	ra
 140              		.cfi_endproc
 141              	.LFE59:
 143              		.align	2
 144              		.globl	_Z13thread_createPP3TCBPFvPvES2_
 146              	_Z13thread_createPP3TCBPFvPvES2_:
 147              	.LFB60:
  25:src/syscall_c.cpp **** 
  26:src/syscall_c.cpp **** 
  27:src/syscall_c.cpp **** int thread_create(thread_t *handle, void(*start_routine)(void *), void *arg) {
 148              		.loc 1 27 78 is_stmt 1
 149              		.cfi_startproc
GAS LISTING /tmp/ccXnzfFq.s 			page 4


 150              	.LVL9:
 151 00b4 130101FD 		addi	sp,sp,-48
 152              		.cfi_def_cfa_offset 48
 153 00b8 23341102 		sd	ra,40(sp)
 154 00bc 23308102 		sd	s0,32(sp)
 155 00c0 233C9100 		sd	s1,24(sp)
 156 00c4 23382101 		sd	s2,16(sp)
 157 00c8 23343101 		sd	s3,8(sp)
 158              		.cfi_offset 1, -8
 159              		.cfi_offset 8, -16
 160              		.cfi_offset 9, -24
 161              		.cfi_offset 18, -32
 162              		.cfi_offset 19, -40
 163 00cc 13040103 		addi	s0,sp,48
 164              		.cfi_def_cfa 8, 0
 165 00d0 93040500 		mv	s1,a0
 166 00d4 13890500 		mv	s2,a1
 167 00d8 93090600 		mv	s3,a2
  28:src/syscall_c.cpp **** 
  29:src/syscall_c.cpp ****     uint64* stackp = (uint64*) Allocator::_malloc(DEFAULT_STACK_SIZE * sizeof(uint64));
 168              		.loc 1 29 5
 169              		.loc 1 29 50 is_stmt 0
 170 00dc 37850000 		li	a0,32768
 171              	.LVL10:
 172 00e0 97000000 		call	_ZN9Allocator7_mallocEm@plt
 172      E7800000 
 173              	.LVL11:
  30:src/syscall_c.cpp **** 
  31:src/syscall_c.cpp ****     if (!stackp) {
 174              		.loc 1 31 5 is_stmt 1
 175 00e8 630A0504 		beqz	a0,.L9
 176 00ec 13070500 		mv	a4,a0
  32:src/syscall_c.cpp ****         return -1;
  33:src/syscall_c.cpp ****     };
 177              		.loc 1 33 6
  34:src/syscall_c.cpp **** 
  35:src/syscall_c.cpp ****     scall(THREAD_CREATE,(uint64) handle, (uint64) start_routine, (uint64) arg, (uint64)stackp);
 178              		.loc 1 35 5
 179              		.loc 1 35 10 is_stmt 0
 180 00f0 93070000 		li	a5,0
 181 00f4 93860900 		mv	a3,s3
 182 00f8 13060900 		mv	a2,s2
 183 00fc 93850400 		mv	a1,s1
 184 0100 13051001 		li	a0,17
 185              	.LVL12:
 186 0104 97000000 		call	_Z5scallmmmmmm
 186      E7800000 
 187              	.LVL13:
  36:src/syscall_c.cpp **** 
  37:src/syscall_c.cpp ****     if (TCB::running == nullptr) {return 0; }
 188              		.loc 1 37 5 is_stmt 1
 189              		.loc 1 37 22 is_stmt 0
 190 010c 97070000 		la	a5,_ZN3TCB7runningE
 190      83B70700 
 191 0114 83B70700 		ld	a5,0(a5)
 192              		.loc 1 37 5
 193 0118 63860702 		beqz	a5,.L10
GAS LISTING /tmp/ccXnzfFq.s 			page 5


  38:src/syscall_c.cpp ****     return TCB::running->retVal;
 194              		.loc 1 38 5 is_stmt 1
 195              		.loc 1 38 26 is_stmt 0
 196 011c 03A58706 		lw	a0,104(a5)
 197              	.L8:
  39:src/syscall_c.cpp **** }
 198              		.loc 1 39 1
 199 0120 83308102 		ld	ra,40(sp)
 200              		.cfi_remember_state
 201              		.cfi_restore 1
 202 0124 03340102 		ld	s0,32(sp)
 203              		.cfi_restore 8
 204              		.cfi_def_cfa 2, 48
 205 0128 83348101 		ld	s1,24(sp)
 206              		.cfi_restore 9
 207              	.LVL14:
 208 012c 03390101 		ld	s2,16(sp)
 209              		.cfi_restore 18
 210              	.LVL15:
 211 0130 83398100 		ld	s3,8(sp)
 212              		.cfi_restore 19
 213              	.LVL16:
 214 0134 13010103 		addi	sp,sp,48
 215              		.cfi_def_cfa_offset 0
 216 0138 67800000 		jr	ra
 217              	.LVL17:
 218              	.L9:
 219              		.cfi_restore_state
  32:src/syscall_c.cpp ****     };
 220              		.loc 1 32 17
 221 013c 1305F0FF 		li	a0,-1
 222              	.LVL18:
 223 0140 6FF01FFE 		j	.L8
 224              	.L10:
  37:src/syscall_c.cpp ****     return TCB::running->retVal;
 225              		.loc 1 37 42
 226 0144 13050000 		li	a0,0
 227 0148 6FF09FFD 		j	.L8
 228              		.cfi_endproc
 229              	.LFE60:
 231              		.align	2
 232              		.globl	_Z11thread_exitv
 234              	_Z11thread_exitv:
 235              	.LFB61:
  40:src/syscall_c.cpp **** 
  41:src/syscall_c.cpp **** int thread_exit() {
 236              		.loc 1 41 19 is_stmt 1
 237              		.cfi_startproc
  42:src/syscall_c.cpp ****     if (TCB::running->getBody() == nullptr) {return -1;}
 238              		.loc 1 42 5
 239              		.loc 1 42 30 is_stmt 0
 240 014c 97070000 		la	a5,_ZN3TCB7runningE
 240      83B70700 
 241 0154 83B70700 		ld	a5,0(a5)
 242              	.LVL19:
 243              	.LBB4:
 244              	.LBB5:
GAS LISTING /tmp/ccXnzfFq.s 			page 6


 245              		.file 2 "src/../h/tcb.hpp"
   1:src/../h/tcb.hpp **** //
   2:src/../h/tcb.hpp **** // Created by os on 5/15/24.
   3:src/../h/tcb.hpp **** //
   4:src/../h/tcb.hpp **** 
   5:src/../h/tcb.hpp **** #ifndef PROJECT_BASE_TCB_HPP
   6:src/../h/tcb.hpp **** #define PROJECT_BASE_TCB_HPP
   7:src/../h/tcb.hpp **** #include "../lib/hw.h"
   8:src/../h/tcb.hpp **** #include "../h/scheduler.hpp"
   9:src/../h/tcb.hpp **** #include "../h/tipovi.hpp"
  10:src/../h/tcb.hpp **** #include "../h/sem.hpp"
  11:src/../h/tcb.hpp **** #include "../h/Allocator.hpp"
  12:src/../h/tcb.hpp **** // dio preuzet sa Teamsa
  13:src/../h/tcb.hpp **** class TCB
  14:src/../h/tcb.hpp **** {
  15:src/../h/tcb.hpp **** public:
  16:src/../h/tcb.hpp ****     static int putcP;
  17:src/../h/tcb.hpp **** 
  18:src/../h/tcb.hpp ****     bool isFinished() const { return finished; }
  19:src/../h/tcb.hpp **** 
  20:src/../h/tcb.hpp ****     void setFinished(bool value) { finished = value; }
  21:src/../h/tcb.hpp **** 
  22:src/../h/tcb.hpp ****     uint64 getTimeSlice() const { return timeSlice; }
  23:src/../h/tcb.hpp **** 
  24:src/../h/tcb.hpp ****     static void putToSleep(time_t t);
  25:src/../h/tcb.hpp **** 
  26:src/../h/tcb.hpp ****     using Body = void (*)(void*);
  27:src/../h/tcb.hpp **** 
  28:src/../h/tcb.hpp ****     Body getBody() {return body;};
 246              		.loc 2 28 21 is_stmt 1
 247              		.loc 2 28 28 is_stmt 0
 248 0158 83B70700 		ld	a5,0(a5)
 249              	.LVL20:
 250              	.LBE5:
 251              	.LBE4:
 252              		.loc 1 42 5
 253 015c 63840704 		beqz	a5,.L14
  41:src/syscall_c.cpp ****     if (TCB::running->getBody() == nullptr) {return -1;}
 254              		.loc 1 41 19
 255 0160 130101FF 		addi	sp,sp,-16
 256              		.cfi_def_cfa_offset 16
 257 0164 23341100 		sd	ra,8(sp)
 258 0168 23308100 		sd	s0,0(sp)
 259              		.cfi_offset 1, -8
 260              		.cfi_offset 8, -16
 261 016c 13040101 		addi	s0,sp,16
 262              		.cfi_def_cfa 8, 0
  43:src/syscall_c.cpp ****     scall(THREAD_EXIT);
 263              		.loc 1 43 5 is_stmt 1
 264              		.loc 1 43 10 is_stmt 0
 265 0170 93070000 		li	a5,0
 266 0174 13070000 		li	a4,0
 267 0178 93060000 		li	a3,0
 268 017c 13060000 		li	a2,0
 269 0180 93050000 		li	a1,0
 270 0184 13052001 		li	a0,18
 271 0188 97000000 		call	_Z5scallmmmmmm
GAS LISTING /tmp/ccXnzfFq.s 			page 7


 271      E7800000 
 272              	.LVL21:
  44:src/syscall_c.cpp ****     return 0;
 273              		.loc 1 44 5 is_stmt 1
 274              		.loc 1 44 12 is_stmt 0
 275 0190 13050000 		li	a0,0
  45:src/syscall_c.cpp **** }
 276              		.loc 1 45 1
 277 0194 83308100 		ld	ra,8(sp)
 278              		.cfi_restore 1
 279 0198 03340100 		ld	s0,0(sp)
 280              		.cfi_restore 8
 281              		.cfi_def_cfa 2, 16
 282 019c 13010101 		addi	sp,sp,16
 283              		.cfi_def_cfa_offset 0
 284 01a0 67800000 		jr	ra
 285              	.L14:
  42:src/syscall_c.cpp ****     scall(THREAD_EXIT);
 286              		.loc 1 42 54
 287 01a4 1305F0FF 		li	a0,-1
 288              		.loc 1 45 1
 289 01a8 67800000 		ret
 290              		.cfi_endproc
 291              	.LFE61:
 293              		.align	2
 294              		.globl	_Z15thread_dispatchv
 296              	_Z15thread_dispatchv:
 297              	.LFB62:
  46:src/syscall_c.cpp **** 
  47:src/syscall_c.cpp **** void thread_dispatch() {
 298              		.loc 1 47 24 is_stmt 1
 299              		.cfi_startproc
 300 01ac 130101FF 		addi	sp,sp,-16
 301              		.cfi_def_cfa_offset 16
 302 01b0 23341100 		sd	ra,8(sp)
 303 01b4 23308100 		sd	s0,0(sp)
 304              		.cfi_offset 1, -8
 305              		.cfi_offset 8, -16
 306 01b8 13040101 		addi	s0,sp,16
 307              		.cfi_def_cfa 8, 0
  48:src/syscall_c.cpp ****     scall(THREAD_DISPATCH);
 308              		.loc 1 48 5
 309              		.loc 1 48 10 is_stmt 0
 310 01bc 93070000 		li	a5,0
 311 01c0 13070000 		li	a4,0
 312 01c4 93060000 		li	a3,0
 313 01c8 13060000 		li	a2,0
 314 01cc 93050000 		li	a1,0
 315 01d0 13053001 		li	a0,19
 316 01d4 97000000 		call	_Z5scallmmmmmm
 316      E7800000 
 317              	.LVL22:
  49:src/syscall_c.cpp **** }
 318              		.loc 1 49 1
 319 01dc 83308100 		ld	ra,8(sp)
 320              		.cfi_restore 1
 321 01e0 03340100 		ld	s0,0(sp)
GAS LISTING /tmp/ccXnzfFq.s 			page 8


 322              		.cfi_restore 8
 323              		.cfi_def_cfa 2, 16
 324 01e4 13010101 		addi	sp,sp,16
 325              		.cfi_def_cfa_offset 0
 326 01e8 67800000 		jr	ra
 327              		.cfi_endproc
 328              	.LFE62:
 330              		.align	2
 331              		.globl	_Z10time_sleepm
 333              	_Z10time_sleepm:
 334              	.LFB63:
  50:src/syscall_c.cpp **** 
  51:src/syscall_c.cpp **** int time_sleep(time_t time) {
 335              		.loc 1 51 29 is_stmt 1
 336              		.cfi_startproc
 337              	.LVL23:
  52:src/syscall_c.cpp ****     if (time == 0) {
 338              		.loc 1 52 5
 339 01ec 63080504 		beqz	a0,.L23
 340 01f0 93050500 		mv	a1,a0
  53:src/syscall_c.cpp ****         return 0;
  54:src/syscall_c.cpp ****     }
  55:src/syscall_c.cpp ****     if ((int) time < 0) {
 341              		.loc 1 55 5
 342 01f4 93170502 		slli	a5,a0,32
 343 01f8 63C60704 		bltz	a5,.L24
  51:src/syscall_c.cpp ****     if (time == 0) {
 344              		.loc 1 51 29 is_stmt 0
 345 01fc 130101FF 		addi	sp,sp,-16
 346              		.cfi_def_cfa_offset 16
 347 0200 23341100 		sd	ra,8(sp)
 348 0204 23308100 		sd	s0,0(sp)
 349              		.cfi_offset 1, -8
 350              		.cfi_offset 8, -16
 351 0208 13040101 		addi	s0,sp,16
 352              		.cfi_def_cfa 8, 0
  56:src/syscall_c.cpp ****         return -1;
  57:src/syscall_c.cpp ****     }
  58:src/syscall_c.cpp ****     scall(TIME_SLEEP,(uint64) time);
 353              		.loc 1 58 5 is_stmt 1
 354              		.loc 1 58 10 is_stmt 0
 355 020c 93070000 		li	a5,0
 356 0210 13070000 		li	a4,0
 357 0214 93060000 		li	a3,0
 358 0218 13060000 		li	a2,0
 359 021c 13051003 		li	a0,49
 360              	.LVL24:
 361 0220 97000000 		call	_Z5scallmmmmmm
 361      E7800000 
 362              	.LVL25:
  59:src/syscall_c.cpp ****     return 0;
 363              		.loc 1 59 5 is_stmt 1
 364              		.loc 1 59 12 is_stmt 0
 365 0228 13050000 		li	a0,0
  60:src/syscall_c.cpp **** }
 366              		.loc 1 60 1
 367 022c 83308100 		ld	ra,8(sp)
GAS LISTING /tmp/ccXnzfFq.s 			page 9


 368              		.cfi_restore 1
 369 0230 03340100 		ld	s0,0(sp)
 370              		.cfi_restore 8
 371              		.cfi_def_cfa 2, 16
 372 0234 13010101 		addi	sp,sp,16
 373              		.cfi_def_cfa_offset 0
 374 0238 67800000 		jr	ra
 375              	.LVL26:
 376              	.L23:
  53:src/syscall_c.cpp ****     }
 377              		.loc 1 53 16
 378 023c 13050000 		li	a0,0
 379              	.LVL27:
 380 0240 67800000 		ret
 381              	.LVL28:
 382              	.L24:
  56:src/syscall_c.cpp ****     }
 383              		.loc 1 56 17
 384 0244 1305F0FF 		li	a0,-1
 385              	.LVL29:
 386              		.loc 1 60 1
 387 0248 67800000 		ret
 388              		.cfi_endproc
 389              	.LFE63:
 391              		.align	2
 392              		.globl	_Z8sem_openPP10kSemaphorej
 394              	_Z8sem_openPP10kSemaphorej:
 395              	.LFB64:
  61:src/syscall_c.cpp **** 
  62:src/syscall_c.cpp **** int sem_open(sem_t *handle, unsigned init) {
 396              		.loc 1 62 44 is_stmt 1
 397              		.cfi_startproc
 398              	.LVL30:
 399 024c 130101FF 		addi	sp,sp,-16
 400              		.cfi_def_cfa_offset 16
 401 0250 23341100 		sd	ra,8(sp)
 402 0254 23308100 		sd	s0,0(sp)
 403              		.cfi_offset 1, -8
 404              		.cfi_offset 8, -16
 405 0258 13040101 		addi	s0,sp,16
 406              		.cfi_def_cfa 8, 0
  63:src/syscall_c.cpp ****     scall(SEM_OPEN, (uint64) handle, (uint64) init);
 407              		.loc 1 63 5
 408              		.loc 1 63 10 is_stmt 0
 409 025c 93070000 		li	a5,0
 410 0260 13070000 		li	a4,0
 411 0264 93060000 		li	a3,0
 412 0268 13960502 		slli	a2,a1,32
 413 026c 13560602 		srli	a2,a2,32
 414 0270 93050500 		mv	a1,a0
 415              	.LVL31:
 416 0274 13051002 		li	a0,33
 417              	.LVL32:
 418 0278 97000000 		call	_Z5scallmmmmmm
 418      E7800000 
 419              	.LVL33:
  64:src/syscall_c.cpp ****     if (TCB::running == nullptr) {return 0; }
GAS LISTING /tmp/ccXnzfFq.s 			page 10


 420              		.loc 1 64 5 is_stmt 1
 421              		.loc 1 64 22 is_stmt 0
 422 0280 97070000 		la	a5,_ZN3TCB7runningE
 422      83B70700 
 423 0288 83B70700 		ld	a5,0(a5)
 424              		.loc 1 64 5
 425 028c 638C0700 		beqz	a5,.L31
  65:src/syscall_c.cpp ****     return TCB::running->retVal;
 426              		.loc 1 65 5 is_stmt 1
 427              		.loc 1 65 26 is_stmt 0
 428 0290 03A58706 		lw	a0,104(a5)
 429              	.L30:
  66:src/syscall_c.cpp **** }
 430              		.loc 1 66 1
 431 0294 83308100 		ld	ra,8(sp)
 432              		.cfi_remember_state
 433              		.cfi_restore 1
 434 0298 03340100 		ld	s0,0(sp)
 435              		.cfi_restore 8
 436              		.cfi_def_cfa 2, 16
 437 029c 13010101 		addi	sp,sp,16
 438              		.cfi_def_cfa_offset 0
 439 02a0 67800000 		jr	ra
 440              	.L31:
 441              		.cfi_restore_state
  64:src/syscall_c.cpp ****     if (TCB::running == nullptr) {return 0; }
 442              		.loc 1 64 42
 443 02a4 13050000 		li	a0,0
 444 02a8 6FF0DFFE 		j	.L30
 445              		.cfi_endproc
 446              	.LFE64:
 448              		.align	2
 449              		.globl	_Z8sem_waitP10kSemaphore
 451              	_Z8sem_waitP10kSemaphore:
 452              	.LFB65:
  67:src/syscall_c.cpp **** 
  68:src/syscall_c.cpp **** int sem_wait(sem_t id) {
 453              		.loc 1 68 24 is_stmt 1
 454              		.cfi_startproc
 455              	.LVL34:
  69:src/syscall_c.cpp ****     if (id == nullptr) {return -1;}
 456              		.loc 1 69 5
 457 02ac 630C0504 		beqz	a0,.L35
  68:src/syscall_c.cpp ****     if (id == nullptr) {return -1;}
 458              		.loc 1 68 24 is_stmt 0
 459 02b0 130101FF 		addi	sp,sp,-16
 460              		.cfi_def_cfa_offset 16
 461 02b4 23341100 		sd	ra,8(sp)
 462 02b8 23308100 		sd	s0,0(sp)
 463              		.cfi_offset 1, -8
 464              		.cfi_offset 8, -16
 465 02bc 13040101 		addi	s0,sp,16
 466              		.cfi_def_cfa 8, 0
 467 02c0 93050500 		mv	a1,a0
  70:src/syscall_c.cpp ****     scall(SEM_WAIT,(uint64) id);
 468              		.loc 1 70 5 is_stmt 1
 469              		.loc 1 70 10 is_stmt 0
GAS LISTING /tmp/ccXnzfFq.s 			page 11


 470 02c4 93070000 		li	a5,0
 471 02c8 13070000 		li	a4,0
 472 02cc 93060000 		li	a3,0
 473 02d0 13060000 		li	a2,0
 474 02d4 13053002 		li	a0,35
 475              	.LVL35:
 476 02d8 97000000 		call	_Z5scallmmmmmm
 476      E7800000 
 477              	.LVL36:
  71:src/syscall_c.cpp ****     if (TCB::running == nullptr) {return 0; }
 478              		.loc 1 71 5 is_stmt 1
 479              		.loc 1 71 22 is_stmt 0
 480 02e0 97070000 		la	a5,_ZN3TCB7runningE
 480      83B70700 
 481 02e8 83B70700 		ld	a5,0(a5)
 482              		.loc 1 71 5
 483 02ec 63800702 		beqz	a5,.L36
  72:src/syscall_c.cpp ****     return TCB::running->retVal;
 484              		.loc 1 72 5 is_stmt 1
 485              		.loc 1 72 26 is_stmt 0
 486 02f0 03A58706 		lw	a0,104(a5)
 487              	.L34:
  73:src/syscall_c.cpp **** }
 488              		.loc 1 73 1
 489 02f4 83308100 		ld	ra,8(sp)
 490              		.cfi_restore 1
 491 02f8 03340100 		ld	s0,0(sp)
 492              		.cfi_restore 8
 493              		.cfi_def_cfa 2, 16
 494 02fc 13010101 		addi	sp,sp,16
 495              		.cfi_def_cfa_offset 0
 496 0300 67800000 		jr	ra
 497              	.LVL37:
 498              	.L35:
  69:src/syscall_c.cpp ****     scall(SEM_WAIT,(uint64) id);
 499              		.loc 1 69 33
 500 0304 1305F0FF 		li	a0,-1
 501              	.LVL38:
 502              		.loc 1 73 1
 503 0308 67800000 		ret
 504              	.L36:
 505              		.cfi_def_cfa_register 8
 506              		.cfi_offset 1, -8
 507              		.cfi_offset 8, -16
  71:src/syscall_c.cpp ****     return TCB::running->retVal;
 508              		.loc 1 71 42
 509 030c 13050000 		li	a0,0
 510 0310 6FF05FFE 		j	.L34
 511              		.cfi_endproc
 512              	.LFE65:
 514              		.align	2
 515              		.globl	_Z10sem_signalP10kSemaphore
 517              	_Z10sem_signalP10kSemaphore:
 518              	.LFB66:
  74:src/syscall_c.cpp **** 
  75:src/syscall_c.cpp **** int sem_signal(sem_t id) {
 519              		.loc 1 75 26 is_stmt 1
GAS LISTING /tmp/ccXnzfFq.s 			page 12


 520              		.cfi_startproc
 521              	.LVL39:
  76:src/syscall_c.cpp ****     if (id == nullptr) {return -1;}
 522              		.loc 1 76 5
 523 0314 630C0504 		beqz	a0,.L43
  75:src/syscall_c.cpp ****     if (id == nullptr) {return -1;}
 524              		.loc 1 75 26 is_stmt 0
 525 0318 130101FF 		addi	sp,sp,-16
 526              		.cfi_def_cfa_offset 16
 527 031c 23341100 		sd	ra,8(sp)
 528 0320 23308100 		sd	s0,0(sp)
 529              		.cfi_offset 1, -8
 530              		.cfi_offset 8, -16
 531 0324 13040101 		addi	s0,sp,16
 532              		.cfi_def_cfa 8, 0
 533 0328 93050500 		mv	a1,a0
  77:src/syscall_c.cpp ****     scall(SEM_SIGNAL,(uint64) id);
 534              		.loc 1 77 5 is_stmt 1
 535              		.loc 1 77 10 is_stmt 0
 536 032c 93070000 		li	a5,0
 537 0330 13070000 		li	a4,0
 538 0334 93060000 		li	a3,0
 539 0338 13060000 		li	a2,0
 540 033c 13054002 		li	a0,36
 541              	.LVL40:
 542 0340 97000000 		call	_Z5scallmmmmmm
 542      E7800000 
 543              	.LVL41:
  78:src/syscall_c.cpp ****     if (TCB::running == nullptr) {return 0; }
 544              		.loc 1 78 5 is_stmt 1
 545              		.loc 1 78 22 is_stmt 0
 546 0348 97070000 		la	a5,_ZN3TCB7runningE
 546      83B70700 
 547 0350 83B70700 		ld	a5,0(a5)
 548              		.loc 1 78 5
 549 0354 63800702 		beqz	a5,.L44
  79:src/syscall_c.cpp ****     return TCB::running->retVal;
 550              		.loc 1 79 5 is_stmt 1
 551              		.loc 1 79 26 is_stmt 0
 552 0358 03A58706 		lw	a0,104(a5)
 553              	.L42:
  80:src/syscall_c.cpp **** }
 554              		.loc 1 80 1
 555 035c 83308100 		ld	ra,8(sp)
 556              		.cfi_restore 1
 557 0360 03340100 		ld	s0,0(sp)
 558              		.cfi_restore 8
 559              		.cfi_def_cfa 2, 16
 560 0364 13010101 		addi	sp,sp,16
 561              		.cfi_def_cfa_offset 0
 562 0368 67800000 		jr	ra
 563              	.LVL42:
 564              	.L43:
  76:src/syscall_c.cpp ****     scall(SEM_SIGNAL,(uint64) id);
 565              		.loc 1 76 33
 566 036c 1305F0FF 		li	a0,-1
 567              	.LVL43:
GAS LISTING /tmp/ccXnzfFq.s 			page 13


 568              		.loc 1 80 1
 569 0370 67800000 		ret
 570              	.L44:
 571              		.cfi_def_cfa_register 8
 572              		.cfi_offset 1, -8
 573              		.cfi_offset 8, -16
  78:src/syscall_c.cpp ****     return TCB::running->retVal;
 574              		.loc 1 78 42
 575 0374 13050000 		li	a0,0
 576 0378 6FF05FFE 		j	.L42
 577              		.cfi_endproc
 578              	.LFE66:
 580              		.align	2
 581              		.globl	_Z9sem_closeP10kSemaphore
 583              	_Z9sem_closeP10kSemaphore:
 584              	.LFB67:
  81:src/syscall_c.cpp **** 
  82:src/syscall_c.cpp **** int sem_close(sem_t id) {
 585              		.loc 1 82 25 is_stmt 1
 586              		.cfi_startproc
 587              	.LVL44:
  83:src/syscall_c.cpp ****     if (id == nullptr) {return -1;}
 588              		.loc 1 83 5
 589 037c 630C0504 		beqz	a0,.L51
  82:src/syscall_c.cpp ****     if (id == nullptr) {return -1;}
 590              		.loc 1 82 25 is_stmt 0
 591 0380 130101FF 		addi	sp,sp,-16
 592              		.cfi_def_cfa_offset 16
 593 0384 23341100 		sd	ra,8(sp)
 594 0388 23308100 		sd	s0,0(sp)
 595              		.cfi_offset 1, -8
 596              		.cfi_offset 8, -16
 597 038c 13040101 		addi	s0,sp,16
 598              		.cfi_def_cfa 8, 0
 599 0390 93050500 		mv	a1,a0
  84:src/syscall_c.cpp ****     scall(SEM_CLOSE,(uint64) id);
 600              		.loc 1 84 5 is_stmt 1
 601              		.loc 1 84 10 is_stmt 0
 602 0394 93070000 		li	a5,0
 603 0398 13070000 		li	a4,0
 604 039c 93060000 		li	a3,0
 605 03a0 13060000 		li	a2,0
 606 03a4 13052002 		li	a0,34
 607              	.LVL45:
 608 03a8 97000000 		call	_Z5scallmmmmmm
 608      E7800000 
 609              	.LVL46:
  85:src/syscall_c.cpp ****     if (TCB::running == nullptr) {return 0; }
 610              		.loc 1 85 5 is_stmt 1
 611              		.loc 1 85 22 is_stmt 0
 612 03b0 97070000 		la	a5,_ZN3TCB7runningE
 612      83B70700 
 613 03b8 83B70700 		ld	a5,0(a5)
 614              		.loc 1 85 5
 615 03bc 63800702 		beqz	a5,.L52
  86:src/syscall_c.cpp ****     return TCB::running->retVal;
 616              		.loc 1 86 5 is_stmt 1
GAS LISTING /tmp/ccXnzfFq.s 			page 14


 617              		.loc 1 86 26 is_stmt 0
 618 03c0 03A58706 		lw	a0,104(a5)
 619              	.L50:
  87:src/syscall_c.cpp **** }
 620              		.loc 1 87 1
 621 03c4 83308100 		ld	ra,8(sp)
 622              		.cfi_restore 1
 623 03c8 03340100 		ld	s0,0(sp)
 624              		.cfi_restore 8
 625              		.cfi_def_cfa 2, 16
 626 03cc 13010101 		addi	sp,sp,16
 627              		.cfi_def_cfa_offset 0
 628 03d0 67800000 		jr	ra
 629              	.LVL47:
 630              	.L51:
  83:src/syscall_c.cpp ****     scall(SEM_CLOSE,(uint64) id);
 631              		.loc 1 83 33
 632 03d4 1305F0FF 		li	a0,-1
 633              	.LVL48:
 634              		.loc 1 87 1
 635 03d8 67800000 		ret
 636              	.L52:
 637              		.cfi_def_cfa_register 8
 638              		.cfi_offset 1, -8
 639              		.cfi_offset 8, -16
  85:src/syscall_c.cpp ****     return TCB::running->retVal;
 640              		.loc 1 85 42
 641 03dc 13050000 		li	a0,0
 642 03e0 6FF05FFE 		j	.L50
 643              		.cfi_endproc
 644              	.LFE67:
 646              		.align	2
 647              		.globl	_Z13sem_timedwaitP10kSemaphorem
 649              	_Z13sem_timedwaitP10kSemaphorem:
 650              	.LFB68:
  88:src/syscall_c.cpp **** 
  89:src/syscall_c.cpp **** int sem_timedwait(sem_t id, time_t timeout) {
 651              		.loc 1 89 45 is_stmt 1
 652              		.cfi_startproc
 653              	.LVL49:
  90:src/syscall_c.cpp ****     if (id == nullptr) {return -1;};
 654              		.loc 1 90 5
 655 03e4 630C0504 		beqz	a0,.L59
  89:src/syscall_c.cpp ****     if (id == nullptr) {return -1;};
 656              		.loc 1 89 45 is_stmt 0 discriminator 2
 657 03e8 130101FF 		addi	sp,sp,-16
 658              		.cfi_def_cfa_offset 16
 659 03ec 23341100 		sd	ra,8(sp)
 660 03f0 23308100 		sd	s0,0(sp)
 661              		.cfi_offset 1, -8
 662              		.cfi_offset 8, -16
 663 03f4 13040101 		addi	s0,sp,16
 664              		.cfi_def_cfa 8, 0
 665 03f8 13860500 		mv	a2,a1
 666              		.loc 1 90 36 is_stmt 1 discriminator 2
  91:src/syscall_c.cpp ****     scall(SEM_TIMEDWAIT, (uint64) id, (uint64) timeout);
 667              		.loc 1 91 5 discriminator 2
GAS LISTING /tmp/ccXnzfFq.s 			page 15


 668              		.loc 1 91 10 is_stmt 0 discriminator 2
 669 03fc 93070000 		li	a5,0
 670 0400 13070000 		li	a4,0
 671 0404 93060000 		li	a3,0
 672 0408 93050500 		mv	a1,a0
 673              	.LVL50:
 674 040c 13055002 		li	a0,37
 675              	.LVL51:
 676 0410 97000000 		call	_Z5scallmmmmmm
 676      E7800000 
 677              	.LVL52:
  92:src/syscall_c.cpp ****     if (TCB::running == nullptr) { return 0; }
 678              		.loc 1 92 5 is_stmt 1 discriminator 2
 679              		.loc 1 92 22 is_stmt 0 discriminator 2
 680 0418 97070000 		la	a5,_ZN3TCB7runningE
 680      83B70700 
 681 0420 83B70700 		ld	a5,0(a5)
 682              		.loc 1 92 5 discriminator 2
 683 0424 63800702 		beqz	a5,.L60
  93:src/syscall_c.cpp ****     return TCB::running->retVal;
 684              		.loc 1 93 5 is_stmt 1
 685              		.loc 1 93 26 is_stmt 0
 686 0428 03A58706 		lw	a0,104(a5)
 687              	.L58:
  94:src/syscall_c.cpp **** }
 688              		.loc 1 94 1
 689 042c 83308100 		ld	ra,8(sp)
 690              		.cfi_restore 1
 691 0430 03340100 		ld	s0,0(sp)
 692              		.cfi_restore 8
 693              		.cfi_def_cfa 2, 16
 694 0434 13010101 		addi	sp,sp,16
 695              		.cfi_def_cfa_offset 0
 696 0438 67800000 		jr	ra
 697              	.LVL53:
 698              	.L59:
  90:src/syscall_c.cpp ****     scall(SEM_TIMEDWAIT, (uint64) id, (uint64) timeout);
 699              		.loc 1 90 33
 700 043c 1305F0FF 		li	a0,-1
 701              	.LVL54:
 702              		.loc 1 94 1
 703 0440 67800000 		ret
 704              	.LVL55:
 705              	.L60:
 706              		.cfi_def_cfa_register 8
 707              		.cfi_offset 1, -8
 708              		.cfi_offset 8, -16
  92:src/syscall_c.cpp ****     return TCB::running->retVal;
 709              		.loc 1 92 43
 710 0444 13050000 		li	a0,0
 711 0448 6FF05FFE 		j	.L58
 712              		.cfi_endproc
 713              	.LFE68:
 715              		.align	2
 716              		.globl	_Z11sem_trywaitP10kSemaphore
 718              	_Z11sem_trywaitP10kSemaphore:
 719              	.LFB69:
GAS LISTING /tmp/ccXnzfFq.s 			page 16


  95:src/syscall_c.cpp **** 
  96:src/syscall_c.cpp **** int sem_trywait(sem_t id) {
 720              		.loc 1 96 27 is_stmt 1
 721              		.cfi_startproc
 722              	.LVL56:
  97:src/syscall_c.cpp ****     if (id == nullptr) {
 723              		.loc 1 97 5
 724 044c 630C0504 		beqz	a0,.L67
  96:src/syscall_c.cpp ****     if (id == nullptr) {
 725              		.loc 1 96 27 is_stmt 0
 726 0450 130101FF 		addi	sp,sp,-16
 727              		.cfi_def_cfa_offset 16
 728 0454 23341100 		sd	ra,8(sp)
 729 0458 23308100 		sd	s0,0(sp)
 730              		.cfi_offset 1, -8
 731              		.cfi_offset 8, -16
 732 045c 13040101 		addi	s0,sp,16
 733              		.cfi_def_cfa 8, 0
 734 0460 93050500 		mv	a1,a0
  98:src/syscall_c.cpp ****         return -1;
  99:src/syscall_c.cpp ****     }
 100:src/syscall_c.cpp ****     scall(SEM_TRYWAIT, (uint64) id);
 735              		.loc 1 100 5 is_stmt 1
 736              		.loc 1 100 10 is_stmt 0
 737 0464 93070000 		li	a5,0
 738 0468 13070000 		li	a4,0
 739 046c 93060000 		li	a3,0
 740 0470 13060000 		li	a2,0
 741 0474 13056002 		li	a0,38
 742              	.LVL57:
 743 0478 97000000 		call	_Z5scallmmmmmm
 743      E7800000 
 744              	.LVL58:
 101:src/syscall_c.cpp ****     if (TCB::running == nullptr) {return 0; }
 745              		.loc 1 101 5 is_stmt 1
 746              		.loc 1 101 22 is_stmt 0
 747 0480 97070000 		la	a5,_ZN3TCB7runningE
 747      83B70700 
 748 0488 83B70700 		ld	a5,0(a5)
 749              		.loc 1 101 5
 750 048c 63800702 		beqz	a5,.L68
 102:src/syscall_c.cpp ****     return TCB::running->retVal;
 751              		.loc 1 102 5 is_stmt 1
 752              		.loc 1 102 26 is_stmt 0
 753 0490 03A58706 		lw	a0,104(a5)
 754              	.L66:
 103:src/syscall_c.cpp **** }
 755              		.loc 1 103 1
 756 0494 83308100 		ld	ra,8(sp)
 757              		.cfi_restore 1
 758 0498 03340100 		ld	s0,0(sp)
 759              		.cfi_restore 8
 760              		.cfi_def_cfa 2, 16
 761 049c 13010101 		addi	sp,sp,16
 762              		.cfi_def_cfa_offset 0
 763 04a0 67800000 		jr	ra
 764              	.LVL59:
GAS LISTING /tmp/ccXnzfFq.s 			page 17


 765              	.L67:
  98:src/syscall_c.cpp ****     }
 766              		.loc 1 98 17
 767 04a4 1305F0FF 		li	a0,-1
 768              	.LVL60:
 769              		.loc 1 103 1
 770 04a8 67800000 		ret
 771              	.L68:
 772              		.cfi_def_cfa_register 8
 773              		.cfi_offset 1, -8
 774              		.cfi_offset 8, -16
 101:src/syscall_c.cpp ****     return TCB::running->retVal;
 775              		.loc 1 101 42
 776 04ac 13050000 		li	a0,0
 777 04b0 6FF05FFE 		j	.L66
 778              		.cfi_endproc
 779              	.LFE69:
 781              		.align	2
 782              		.globl	_Z4getcv
 784              	_Z4getcv:
 785              	.LFB70:
 104:src/syscall_c.cpp **** 
 105:src/syscall_c.cpp **** char getc() {
 786              		.loc 1 105 13 is_stmt 1
 787              		.cfi_startproc
 788 04b4 130101FF 		addi	sp,sp,-16
 789              		.cfi_def_cfa_offset 16
 790 04b8 23341100 		sd	ra,8(sp)
 791 04bc 23308100 		sd	s0,0(sp)
 792              		.cfi_offset 1, -8
 793              		.cfi_offset 8, -16
 794 04c0 13040101 		addi	s0,sp,16
 795              		.cfi_def_cfa 8, 0
 106:src/syscall_c.cpp ****     scall(GETC);
 796              		.loc 1 106 5
 797              		.loc 1 106 10 is_stmt 0
 798 04c4 93070000 		li	a5,0
 799 04c8 13070000 		li	a4,0
 800 04cc 93060000 		li	a3,0
 801 04d0 13060000 		li	a2,0
 802 04d4 93050000 		li	a1,0
 803 04d8 13051004 		li	a0,65
 804 04dc 97000000 		call	_Z5scallmmmmmm
 804      E7800000 
 805              	.LVL61:
 107:src/syscall_c.cpp ****     return (char) TCB::running->getcRetVal;
 806              		.loc 1 107 5 is_stmt 1
 807              		.loc 1 107 33 is_stmt 0
 808 04e4 97070000 		la	a5,_ZN3TCB7runningE
 808      83B70700 
 809 04ec 83B70700 		ld	a5,0(a5)
 108:src/syscall_c.cpp ****     //return (char) __getc();
 109:src/syscall_c.cpp **** }
 810              		.loc 1 109 1
 811 04f0 03C5C706 		lbu	a0,108(a5)
 812 04f4 83308100 		ld	ra,8(sp)
 813              		.cfi_restore 1
GAS LISTING /tmp/ccXnzfFq.s 			page 18


 814 04f8 03340100 		ld	s0,0(sp)
 815              		.cfi_restore 8
 816              		.cfi_def_cfa 2, 16
 817 04fc 13010101 		addi	sp,sp,16
 818              		.cfi_def_cfa_offset 0
 819 0500 67800000 		jr	ra
 820              		.cfi_endproc
 821              	.LFE70:
 823              		.align	2
 824              		.globl	_Z4putcc
 826              	_Z4putcc:
 827              	.LFB71:
 110:src/syscall_c.cpp **** 
 111:src/syscall_c.cpp **** void putc(char c) {
 828              		.loc 1 111 19 is_stmt 1
 829              		.cfi_startproc
 830              	.LVL62:
 831 0504 130101FF 		addi	sp,sp,-16
 832              		.cfi_def_cfa_offset 16
 833 0508 23341100 		sd	ra,8(sp)
 834 050c 23308100 		sd	s0,0(sp)
 835              		.cfi_offset 1, -8
 836              		.cfi_offset 8, -16
 837 0510 13040101 		addi	s0,sp,16
 838              		.cfi_def_cfa 8, 0
 839 0514 93050500 		mv	a1,a0
 112:src/syscall_c.cpp ****     scall(PUTC, (uint64) c);
 840              		.loc 1 112 5
 841              		.loc 1 112 10 is_stmt 0
 842 0518 93070000 		li	a5,0
 843 051c 13070000 		li	a4,0
 844 0520 93060000 		li	a3,0
 845 0524 13060000 		li	a2,0
 846 0528 13052004 		li	a0,66
 847              	.LVL63:
 848 052c 97000000 		call	_Z5scallmmmmmm
 848      E7800000 
 849              	.LVL64:
 113:src/syscall_c.cpp ****     /*if (TCB::putcP == 20) {
 114:src/syscall_c.cpp ****         time_sleep(1);
 115:src/syscall_c.cpp ****         TCB::putcP = 0;
 116:src/syscall_c.cpp ****     }
 117:src/syscall_c.cpp ****     TCB::putcP++;
 118:src/syscall_c.cpp ****     */
 119:src/syscall_c.cpp ****     return;
 850              		.loc 1 119 5 is_stmt 1
 120:src/syscall_c.cpp **** }
 851              		.loc 1 120 1 is_stmt 0
 852 0534 83308100 		ld	ra,8(sp)
 853              		.cfi_restore 1
 854 0538 03340100 		ld	s0,0(sp)
 855              		.cfi_restore 8
 856              		.cfi_def_cfa 2, 16
 857 053c 13010101 		addi	sp,sp,16
 858              		.cfi_def_cfa_offset 0
 859 0540 67800000 		jr	ra
 860              		.cfi_endproc
GAS LISTING /tmp/ccXnzfFq.s 			page 19


 861              	.LFE71:
 863              	.Letext0:
 864              		.file 3 "src/../h/../lib/hw.h"
 865              		.file 4 "src/../h/../h/../h/../h/Allocator.hpp"
 866              		.file 5 "src/../h/../h/../h/list.hpp"
 867              		.file 6 "src/../h/../h/tipovi.hpp"
 868              		.file 7 "src/../h/../h/sem.hpp"
 869              		.file 8 "src/../h/syscall_c.h"
GAS LISTING /tmp/ccXnzfFq.s 			page 20

