GAS LISTING /tmp/ccsdQGfN.s 			page 1


   1              		.file	"tcb.cpp"
   2              		.option pic
   3              		.option norelax
   4              		.text
   5              	.Ltext0:
   6              		.align	2
   8              	_Z41__static_initialization_and_destruction_0ii:
   9              	.LFB71:
  10              		.file 1 "src/tcb.cpp"
   1:src/tcb.cpp   **** //
   2:src/tcb.cpp   **** // Created by os on 5/15/24.
   3:src/tcb.cpp   **** //
   4:src/tcb.cpp   **** 
   5:src/tcb.cpp   **** #include "../h/tcb.hpp"
   6:src/tcb.cpp   **** #include "../h/riscv.hpp"
   7:src/tcb.cpp   **** #include "../h/syscall_c.h"
   8:src/tcb.cpp   **** #include "../h/print.hpp"
   9:src/tcb.cpp   **** 
  10:src/tcb.cpp   **** extern "C" void popRegisters();
  11:src/tcb.cpp   **** extern "C" void pushRegisters();
  12:src/tcb.cpp   **** 
  13:src/tcb.cpp   **** TCB *TCB::running = nullptr;
  14:src/tcb.cpp   **** 
  15:src/tcb.cpp   **** List<TCB> TCB::sleeping;
  16:src/tcb.cpp   **** 
  17:src/tcb.cpp   **** uint64 TCB::timeSliceCounter = 0;
  18:src/tcb.cpp   **** 
  19:src/tcb.cpp   **** int TCB::putcP = 0;
  20:src/tcb.cpp   **** 
  21:src/tcb.cpp   **** int TCB::thread_create(thread_t *handle, TCB::Body body, void *arg, uint64 *stack) {
  22:src/tcb.cpp   ****     if (handle == nullptr) return -1;
  23:src/tcb.cpp   ****     *handle = new TCB(body,stack,arg,DEFAULT_TIME_SLICE);
  24:src/tcb.cpp   ****     return 0;
  25:src/tcb.cpp   **** }
  26:src/tcb.cpp   **** 
  27:src/tcb.cpp   **** void TCB::yield()
  28:src/tcb.cpp   **** {
  29:src/tcb.cpp   ****     __asm__ volatile ("ecall");
  30:src/tcb.cpp   **** }
  31:src/tcb.cpp   **** 
  32:src/tcb.cpp   **** void TCB::dispatch() {
  33:src/tcb.cpp   ****     TCB *old = running;
  34:src/tcb.cpp   ****     if (!old->isFinished() && !old->isSleeping && !old->blocked) {
  35:src/tcb.cpp   ****         Scheduler::put(old);
  36:src/tcb.cpp   ****     }
  37:src/tcb.cpp   ****     running = Scheduler::get();
  38:src/tcb.cpp   ****     if (old != running) {
  39:src/tcb.cpp   ****         TCB::contextSwitch(&old->context, &running->context);
  40:src/tcb.cpp   ****     }
  41:src/tcb.cpp   **** }
  42:src/tcb.cpp   **** 
  43:src/tcb.cpp   **** void TCB::threadWrapper() // YILED DISPATCH
  44:src/tcb.cpp   **** {
  45:src/tcb.cpp   ****     Riscv::popSppSpie();
  46:src/tcb.cpp   ****     running->body(running->arg);
  47:src/tcb.cpp   ****     running->setFinished(true);
  48:src/tcb.cpp   ****     TCB::yield();
GAS LISTING /tmp/ccsdQGfN.s 			page 2


  49:src/tcb.cpp   **** }
  50:src/tcb.cpp   **** 
  51:src/tcb.cpp   **** void TCB::putToSleep(time_t t) { //  YILED DISPATCH
  52:src/tcb.cpp   ****     TCB::running->timeSliceCounter = 0;
  53:src/tcb.cpp   ****     TCB::running->timeToSleep = t;
  54:src/tcb.cpp   ****     TCB::running->isSleeping = true;
  55:src/tcb.cpp   ****     TCB::sleeping.addLast(TCB::running);
  56:src/tcb.cpp   ****     TCB::dispatch();
  57:src/tcb.cpp   ****     //TCB::yield();
  58:src/tcb.cpp   **** }...
  11              		.loc 1 58 1
  12              		.cfi_startproc
  13              	.LVL0:
  14 0000 130101FF 		addi	sp,sp,-16
  15              		.cfi_def_cfa_offset 16
  16 0004 23348100 		sd	s0,8(sp)
  17              		.cfi_offset 8, -8
  18 0008 13040101 		addi	s0,sp,16
  19              		.cfi_def_cfa 8, 0
  20              		.loc 1 58 1 is_stmt 0
  21 000c 93071000 		li	a5,1
  22 0010 6308F500 		beq	a0,a5,.L4
  23              	.L1:
  24 0014 03348100 		ld	s0,8(sp)
  25              		.cfi_remember_state
  26              		.cfi_restore 8
  27              		.cfi_def_cfa 2, 16
  28 0018 13010101 		addi	sp,sp,16
  29              		.cfi_def_cfa_offset 0
  30 001c 67800000 		jr	ra
  31              	.L4:
  32              		.cfi_restore_state
  33              		.loc 1 58 1 discriminator 1
  34 0020 B7070100 		li	a5,65536
  35 0024 9387F7FF 		addi	a5,a5,-1
  36 0028 E396F5FE 		bne	a1,a5,.L1
  37              	.LVL1:
  38              	.LBB25:
  39              	.LBB26:
  40              	.LBB27:
  41              		.file 2 "src/../h/../h/../h/list.hpp"
   1:src/../h/../h/../h/list.hpp **** //
   2:src/../h/../h/../h/list.hpp **** // Created by os on 5/16/24.
   3:src/../h/../h/../h/list.hpp **** //
   4:src/../h/../h/../h/list.hpp **** 
   5:src/../h/../h/../h/list.hpp **** #ifndef PROJECT_BASE_LIST_HPP
   6:src/../h/../h/../h/list.hpp **** #define PROJECT_BASE_LIST_HPP
   7:src/../h/../h/../h/list.hpp **** 
   8:src/../h/../h/../h/list.hpp **** #include "../h/Allocator.hpp"
   9:src/../h/../h/../h/list.hpp **** //Lista preuzeta sa teamsa
  10:src/../h/../h/../h/list.hpp **** 
  11:src/../h/../h/../h/list.hpp **** template<typename T>
  12:src/../h/../h/../h/list.hpp **** class List
  13:src/../h/../h/../h/list.hpp **** {
  14:src/../h/../h/../h/list.hpp **** private:
  15:src/../h/../h/../h/list.hpp ****     struct Elem
  16:src/../h/../h/../h/list.hpp ****     {
GAS LISTING /tmp/ccsdQGfN.s 			page 3


  17:src/../h/../h/../h/list.hpp ****         T *data;
  18:src/../h/../h/../h/list.hpp ****         Elem *next;
  19:src/../h/../h/../h/list.hpp **** 
  20:src/../h/../h/../h/list.hpp ****         Elem(T *data, Elem *next) : data(data), next(next) {}
  21:src/../h/../h/../h/list.hpp **** 
  22:src/../h/../h/../h/list.hpp ****         void* operator new(size_t size) {
  23:src/../h/../h/../h/list.hpp ****             return Allocator::_malloc(size);
  24:src/../h/../h/../h/list.hpp ****         }
  25:src/../h/../h/../h/list.hpp **** 
  26:src/../h/../h/../h/list.hpp ****         void operator delete(void* ptr) {
  27:src/../h/../h/../h/list.hpp ****             Allocator::_mem_free(ptr);
  28:src/../h/../h/../h/list.hpp ****         }
  29:src/../h/../h/../h/list.hpp **** 
  30:src/../h/../h/../h/list.hpp ****         void* operator new[](size_t size) {
  31:src/../h/../h/../h/list.hpp ****             return Allocator::_malloc(size);
  32:src/../h/../h/../h/list.hpp ****         }
  33:src/../h/../h/../h/list.hpp **** 
  34:src/../h/../h/../h/list.hpp ****         void operator delete[](void* ptr) {
  35:src/../h/../h/../h/list.hpp ****             Allocator::_mem_free(ptr);
  36:src/../h/../h/../h/list.hpp ****         }
  37:src/../h/../h/../h/list.hpp ****     };
  38:src/../h/../h/../h/list.hpp **** 
  39:src/../h/../h/../h/list.hpp ****     Elem *head, *tail;
  40:src/../h/../h/../h/list.hpp **** 
  41:src/../h/../h/../h/list.hpp **** public:
  42:src/../h/../h/../h/list.hpp ****     friend class TCB;
  43:src/../h/../h/../h/list.hpp ****     friend class Riscv;
  44:src/../h/../h/../h/list.hpp ****     friend class kSemaphore;
  45:src/../h/../h/../h/list.hpp **** 
  46:src/../h/../h/../h/list.hpp ****     List() : head(0), tail(0) {}
  42              		.loc 2 46 29
  43 002c 97070000 		lla	a5,.LANCHOR0
  43      93870700 
  44 0034 23B00700 		sd	zero,0(a5)
  45 0038 23B40700 		sd	zero,8(a5)
  46              	.LVL2:
  47              	.LBE27:
  48              	.LBE26:
  49              	.LBE25:
  50              		.loc 1 58 1
  51 003c 6FF09FFD 		j	.L1
  52              		.cfi_endproc
  53              	.LFE71:
  55              		.align	2
  56              		.globl	_ZN3TCB13thread_createEPPS_PFvPvES2_Pm
  58              	_ZN3TCB13thread_createEPPS_PFvPvES2_Pm:
  59              	.LFB57:
  21:src/tcb.cpp   **** int TCB::thread_create(thread_t *handle, TCB::Body body, void *arg, uint64 *stack) {
  60              		.loc 1 21 84 is_stmt 1
  61              		.cfi_startproc
  62              		.cfi_personality 0x9b,DW.ref.__gxx_personality_v0
  63              		.cfi_lsda 0x1b,.LLSDA57
  64              	.LVL3:
  22:src/tcb.cpp   ****     if (handle == nullptr) return -1;
  65              		.loc 1 22 5
  66 0040 630A050E 		beqz	a0,.L11
  21:src/tcb.cpp   **** int TCB::thread_create(thread_t *handle, TCB::Body body, void *arg, uint64 *stack) {
GAS LISTING /tmp/ccsdQGfN.s 			page 4


  67              		.loc 1 21 84 is_stmt 0
  68 0044 130101FC 		addi	sp,sp,-64
  69              		.cfi_def_cfa_offset 64
  70 0048 233C1102 		sd	ra,56(sp)
  71 004c 23388102 		sd	s0,48(sp)
  72 0050 23349102 		sd	s1,40(sp)
  73 0054 23302103 		sd	s2,32(sp)
  74 0058 233C3101 		sd	s3,24(sp)
  75 005c 23384101 		sd	s4,16(sp)
  76 0060 23345101 		sd	s5,8(sp)
  77              		.cfi_offset 1, -8
  78              		.cfi_offset 8, -16
  79              		.cfi_offset 9, -24
  80              		.cfi_offset 18, -32
  81              		.cfi_offset 19, -40
  82              		.cfi_offset 20, -48
  83              		.cfi_offset 21, -56
  84 0064 13040104 		addi	s0,sp,64
  85              		.cfi_def_cfa 8, 0
  86 0068 93090500 		mv	s3,a0
  87 006c 138A0500 		mv	s4,a1
  88 0070 930A0600 		mv	s5,a2
  89 0074 13890600 		mv	s2,a3
  23:src/tcb.cpp   ****     *handle = new TCB(body,stack,arg,DEFAULT_TIME_SLICE);
  90              		.loc 1 23 5 is_stmt 1
  91              	.LVL4:
  92              	.LBB35:
  93              	.LBB36:
  94              		.file 3 "src/../h/tcb.hpp"
   1:src/../h/tcb.hpp **** //
   2:src/../h/tcb.hpp **** // Created by os on 5/15/24.
   3:src/../h/tcb.hpp **** //
   4:src/../h/tcb.hpp **** 
   5:src/../h/tcb.hpp **** #ifndef PROJECT_BASE_TCB_HPP
   6:src/../h/tcb.hpp **** #define PROJECT_BASE_TCB_HPP
   7:src/../h/tcb.hpp **** #include "../lib/hw.h"
   8:src/../h/tcb.hpp **** #include "../h/scheduler.hpp"
   9:src/../h/tcb.hpp **** #include "../h/tipovi.hpp"
  10:src/../h/tcb.hpp **** #include "../h/sem.hpp"
  11:src/../h/tcb.hpp **** #include "../h/Allocator.hpp"
  12:src/../h/tcb.hpp **** // dio preuzet sa Teamsa
  13:src/../h/tcb.hpp **** class TCB
  14:src/../h/tcb.hpp **** {
  15:src/../h/tcb.hpp **** public:
  16:src/../h/tcb.hpp ****     static int putcP;
  17:src/../h/tcb.hpp **** 
  18:src/../h/tcb.hpp ****     bool isFinished() const { return finished; }
  19:src/../h/tcb.hpp **** 
  20:src/../h/tcb.hpp ****     void setFinished(bool value) { finished = value; }
  21:src/../h/tcb.hpp **** 
  22:src/../h/tcb.hpp ****     uint64 getTimeSlice() const { return timeSlice; }
  23:src/../h/tcb.hpp **** 
  24:src/../h/tcb.hpp ****     static void putToSleep(time_t t);
  25:src/../h/tcb.hpp **** 
  26:src/../h/tcb.hpp ****     using Body = void (*)(void*);
  27:src/../h/tcb.hpp **** 
  28:src/../h/tcb.hpp ****     Body getBody() {return body;};
GAS LISTING /tmp/ccsdQGfN.s 			page 5


  29:src/../h/tcb.hpp **** 
  30:src/../h/tcb.hpp ****     static int thread_create(TCB** handle, Body body,void *arg, uint64* stack);
  31:src/../h/tcb.hpp **** 
  32:src/../h/tcb.hpp ****     static void yield();
  33:src/../h/tcb.hpp **** 
  34:src/../h/tcb.hpp ****     static TCB *running;
  35:src/../h/tcb.hpp **** 
  36:src/../h/tcb.hpp ****     static List<TCB> sleeping;
  37:src/../h/tcb.hpp **** 
  38:src/../h/tcb.hpp ****     void* operator new(size_t size) {
  39:src/../h/tcb.hpp ****         return Allocator::_malloc(size);
  95              		.loc 3 39 9
  96              		.loc 3 39 34 is_stmt 0
  97 0078 13050007 		li	a0,112
  98              	.LVL5:
  99              	.LEHB0:
 100 007c 97000000 		call	_ZN9Allocator7_mallocEm@plt
 100      E7800000 
 101              	.LVL6:
 102              	.LEHE0:
 103 0084 93040500 		mv	s1,a0
 104              	.LVL7:
 105              	.LBE36:
 106              	.LBE35:
 107              	.LBB37:
 108              	.LBB38:
  40:src/../h/tcb.hpp ****     }
  41:src/../h/tcb.hpp **** 
  42:src/../h/tcb.hpp ****     void operator delete(void* ptr) {
  43:src/../h/tcb.hpp ****         Allocator::_mem_free(ptr);
  44:src/../h/tcb.hpp ****     }
  45:src/../h/tcb.hpp **** 
  46:src/../h/tcb.hpp ****     void* operator new[](size_t size) {
  47:src/../h/tcb.hpp ****         return Allocator::_malloc(size);
  48:src/../h/tcb.hpp ****     }
  49:src/../h/tcb.hpp **** 
  50:src/../h/tcb.hpp ****     void operator delete[](void* ptr) {
  51:src/../h/tcb.hpp ****         Allocator::_mem_free(ptr);
  52:src/../h/tcb.hpp ****     }
  53:src/../h/tcb.hpp **** 
  54:src/../h/tcb.hpp ****     ~TCB() { delete[] stack;}
  55:src/../h/tcb.hpp **** 
  56:src/../h/tcb.hpp ****     static void dispatch();
  57:src/../h/tcb.hpp **** 
  58:src/../h/tcb.hpp **** private:
  59:src/../h/tcb.hpp ****     TCB(Body body,uint64* stack,void* arg,uint64 timeSlice) :
  60:src/../h/tcb.hpp ****             body(body),
  61:src/../h/tcb.hpp ****             stack(body != nullptr ? stack : nullptr),
  62:src/../h/tcb.hpp ****             context({(uint64) &threadWrapper,
  63:src/../h/tcb.hpp ****                      stack != nullptr ? (uint64) &stack[DEFAULT_STACK_SIZE] : 0
  64:src/../h/tcb.hpp ****                     }),
  65:src/../h/tcb.hpp ****             timeSlice(timeSlice),
  66:src/../h/tcb.hpp ****             finished(false),
  67:src/../h/tcb.hpp ****             arg(arg),
  68:src/../h/tcb.hpp ****             timeToSleep(0),
  69:src/../h/tcb.hpp ****             isSleeping(false),
  70:src/../h/tcb.hpp ****             blocked(false),
GAS LISTING /tmp/ccsdQGfN.s 			page 6


  71:src/../h/tcb.hpp ****             timeToWaitSem(0),
  72:src/../h/tcb.hpp ****             blockedOnWhichSem(nullptr),
  73:src/../h/tcb.hpp ****             regularlyFinishedWait(false),
  74:src/../h/tcb.hpp ****             mallocRetVal(nullptr)
 109              		.loc 3 74 33
 110 0088 23304501 		sd	s4,0(a0)
  61:src/../h/tcb.hpp ****             context({(uint64) &threadWrapper,
 111              		.loc 3 61 35
 112 008c 63060A06 		beqz	s4,.L12
 113 0090 93070900 		mv	a5,s2
 114              	.L7:
 115              		.loc 3 74 33
 116 0094 23B4F400 		sd	a5,8(s1)
 117 0098 97070000 		lla	a5,_ZN3TCB13threadWrapperEv
 117      93870700 
 118 00a0 23B8F400 		sd	a5,16(s1)
  63:src/../h/tcb.hpp ****                     }),
 119              		.loc 3 63 39
 120 00a4 630E0904 		beqz	s2,.L13
  63:src/../h/tcb.hpp ****                     }),
 121              		.loc 3 63 50
 122 00a8 B7860000 		li	a3,32768
 123 00ac 3309D900 		add	s2,s2,a3
 124              	.LVL8:
 125              	.L8:
 126              		.loc 3 74 33
 127 00b0 23BC2401 		sd	s2,24(s1)
 128 00b4 93072000 		li	a5,2
 129 00b8 23B0F402 		sd	a5,32(s1)
 130 00bc 23840402 		sb	zero,40(s1)
 131 00c0 23B85403 		sd	s5,48(s1)
 132 00c4 23BC0402 		sd	zero,56(s1)
 133 00c8 23800404 		sb	zero,64(s1)
 134 00cc A3800404 		sb	zero,65(s1)
 135 00d0 23B40404 		sd	zero,72(s1)
 136 00d4 23B80404 		sd	zero,80(s1)
 137 00d8 238C0404 		sb	zero,88(s1)
 138 00dc 23B00406 		sd	zero,96(s1)
 139 00e0 23A40406 		sw	zero,104(s1)
  75:src/../h/tcb.hpp ****     {
  76:src/../h/tcb.hpp ****         if (body != nullptr) {
 140              		.loc 3 76 9 is_stmt 1
 141 00e4 63020A02 		beqz	s4,.L9
  77:src/../h/tcb.hpp ****             Scheduler::put(this);
 142              		.loc 3 77 13
 143              		.loc 3 77 27 is_stmt 0
 144 00e8 13850400 		mv	a0,s1
 145              	.LEHB1:
 146 00ec 97000000 		call	_ZN9Scheduler3putEP3TCB@plt
 146      E7800000 
 147              	.LVL9:
 148              	.LEHE1:
 149 00f4 6F004001 		j	.L9
 150              	.LVL10:
 151              	.L12:
  61:src/../h/tcb.hpp ****             context({(uint64) &threadWrapper,
 152              		.loc 3 61 35
GAS LISTING /tmp/ccsdQGfN.s 			page 7


 153 00f8 93070000 		li	a5,0
 154 00fc 6FF09FF9 		j	.L7
 155              	.L13:
  63:src/../h/tcb.hpp ****                     }),
 156              		.loc 3 63 39
 157 0100 13090000 		li	s2,0
 158              	.LVL11:
 159 0104 6FF0DFFA 		j	.L8
 160              	.L9:
 161              	.LVL12:
 162              	.LBE38:
 163              	.LBE37:
  23:src/tcb.cpp   ****     *handle = new TCB(body,stack,arg,DEFAULT_TIME_SLICE);
 164              		.loc 1 23 13
 165 0108 23B09900 		sd	s1,0(s3)
  24:src/tcb.cpp   ****     return 0;
 166              		.loc 1 24 5 is_stmt 1
  24:src/tcb.cpp   ****     return 0;
 167              		.loc 1 24 12 is_stmt 0
 168 010c 13050000 		li	a0,0
  25:src/tcb.cpp   **** }
 169              		.loc 1 25 1
 170 0110 83308103 		ld	ra,56(sp)
 171              		.cfi_restore 1
 172 0114 03340103 		ld	s0,48(sp)
 173              		.cfi_restore 8
 174              		.cfi_def_cfa 2, 64
 175 0118 83348102 		ld	s1,40(sp)
 176              		.cfi_restore 9
 177 011c 03390102 		ld	s2,32(sp)
 178              		.cfi_restore 18
 179 0120 83398101 		ld	s3,24(sp)
 180              		.cfi_restore 19
 181              	.LVL13:
 182 0124 033A0101 		ld	s4,16(sp)
 183              		.cfi_restore 20
 184              	.LVL14:
 185 0128 833A8100 		ld	s5,8(sp)
 186              		.cfi_restore 21
 187              	.LVL15:
 188 012c 13010104 		addi	sp,sp,64
 189              		.cfi_def_cfa_offset 0
 190 0130 67800000 		jr	ra
 191              	.LVL16:
 192              	.L11:
  22:src/tcb.cpp   ****     if (handle == nullptr) return -1;
 193              		.loc 1 22 36
 194 0134 1305F0FF 		li	a0,-1
 195              	.LVL17:
  25:src/tcb.cpp   **** }
 196              		.loc 1 25 1
 197 0138 67800000 		ret
 198              	.LVL18:
 199              	.L14:
 200              		.cfi_def_cfa_register 8
 201              		.cfi_offset 1, -8
 202              		.cfi_offset 8, -16
GAS LISTING /tmp/ccsdQGfN.s 			page 8


 203              		.cfi_offset 9, -24
 204              		.cfi_offset 18, -32
 205              		.cfi_offset 19, -40
 206              		.cfi_offset 20, -48
 207              		.cfi_offset 21, -56
 208 013c 13090500 		mv	s2,a0
 209              	.LVL19:
 210              	.LBB39:
 211              	.LBB40:
  43:src/../h/tcb.hpp ****     }
 212              		.loc 3 43 9 is_stmt 1
  43:src/../h/tcb.hpp ****     }
 213              		.loc 3 43 29 is_stmt 0
 214 0140 13850400 		mv	a0,s1
 215 0144 97000000 		call	_ZN9Allocator9_mem_freeEPv@plt
 215      E7800000 
 216              	.LVL20:
 217 014c 13050900 		mv	a0,s2
 218              	.LEHB2:
 219 0150 97000000 		call	_Unwind_Resume@plt
 219      E7800000 
 220              	.LVL21:
 221              	.LEHE2:
 222              	.LBE40:
 223              	.LBE39:
 224              		.cfi_endproc
 225              	.LFE57:
 226              		.globl	__gxx_personality_v0
 227              		.section	.gcc_except_table,"a",@progbits
 228              	.LLSDA57:
 229 0000 FF       		.byte	0xff
 230 0001 FF       		.byte	0xff
 231 0002 03       		.byte	0x3
 232 0003 27       		.byte	0x27
 233 0004 00000000 		.4byte	.LEHB0-.LFB57
 234 0008 00000000 		.4byte	.LEHE0-.LEHB0
 235 000c 00000000 		.4byte	0
 236 0010 00       		.byte	0
 237 0011 00000000 		.4byte	.LEHB1-.LFB57
 238 0015 00000000 		.4byte	.LEHE1-.LEHB1
 239 0019 00000000 		.4byte	.L14-.LFB57
 240 001d 00       		.byte	0
 241 001e 00000000 		.4byte	.LEHB2-.LFB57
 242 0022 00000000 		.4byte	.LEHE2-.LEHB2
 243 0026 00000000 		.4byte	0
 244 002a 00       		.byte	0
 245              		.text
 247              		.align	2
 248              		.globl	_ZN3TCB5yieldEv
 250              	_ZN3TCB5yieldEv:
 251              	.LFB58:
  28:src/tcb.cpp   **** {
 252              		.loc 1 28 1 is_stmt 1
 253              		.cfi_startproc
 254 0158 130101FF 		addi	sp,sp,-16
 255              		.cfi_def_cfa_offset 16
 256 015c 23348100 		sd	s0,8(sp)
GAS LISTING /tmp/ccsdQGfN.s 			page 9


 257              		.cfi_offset 8, -8
 258 0160 13040101 		addi	s0,sp,16
 259              		.cfi_def_cfa 8, 0
  29:src/tcb.cpp   ****     __asm__ volatile ("ecall");
 260              		.loc 1 29 5
  29:src/tcb.cpp   ****     __asm__ volatile ("ecall");
 261              		.loc 1 29 31 is_stmt 0
 262              	#APP
 263              	# 29 "src/tcb.cpp" 1
  30:src/tcb.cpp   **** }
 264              		ecall
 265              	# 0 "" 2
 266              		.loc 1 30 1
 267              	#NO_APP
 268 0168 03348100 		ld	s0,8(sp)
 269              		.cfi_restore 8
 270              		.cfi_def_cfa 2, 16
 271 016c 13010101 		addi	sp,sp,16
 272              		.cfi_def_cfa_offset 0
 273 0170 67800000 		jr	ra
 274              		.cfi_endproc
 275              	.LFE58:
 277              		.align	2
 278              		.globl	_ZN3TCB13threadWrapperEv
 280              	_ZN3TCB13threadWrapperEv:
 281              	.LFB60:
  44:src/tcb.cpp   **** {
 282              		.loc 1 44 1 is_stmt 1
 283              		.cfi_startproc
 284 0174 130101FE 		addi	sp,sp,-32
 285              		.cfi_def_cfa_offset 32
 286 0178 233C1100 		sd	ra,24(sp)
 287 017c 23388100 		sd	s0,16(sp)
 288 0180 23349100 		sd	s1,8(sp)
 289              		.cfi_offset 1, -8
 290              		.cfi_offset 8, -16
 291              		.cfi_offset 9, -24
 292 0184 13040102 		addi	s0,sp,32
 293              		.cfi_def_cfa 8, 0
  45:src/tcb.cpp   ****     Riscv::popSppSpie();
 294              		.loc 1 45 5
  45:src/tcb.cpp   ****     Riscv::popSppSpie();
 295              		.loc 1 45 22 is_stmt 0
 296 0188 97000000 		call	_ZN5Riscv10popSppSpieEv@plt
 296      E7800000 
 297              	.LVL22:
  46:src/tcb.cpp   ****     running->body(running->arg);
 298              		.loc 1 46 5 is_stmt 1
  46:src/tcb.cpp   ****     running->body(running->arg);
 299              		.loc 1 46 14 is_stmt 0
 300 0190 97040000 		lla	s1,.LANCHOR0
 300      93840400 
 301 0198 83B70401 		ld	a5,16(s1)
 302 019c 03B70700 		ld	a4,0(a5)
  46:src/tcb.cpp   ****     running->body(running->arg);
 303              		.loc 1 46 18
 304 01a0 03B50703 		ld	a0,48(a5)
GAS LISTING /tmp/ccsdQGfN.s 			page 10


 305 01a4 E7000700 		jalr	a4
 306              	.LVL23:
  47:src/tcb.cpp   ****     running->setFinished(true);
 307              		.loc 1 47 5 is_stmt 1
  47:src/tcb.cpp   ****     running->setFinished(true);
 308              		.loc 1 47 25 is_stmt 0
 309 01a8 83B70401 		ld	a5,16(s1)
 310              	.LVL24:
 311              	.LBB41:
 312              	.LBB42:
  20:src/../h/tcb.hpp **** 
 313              		.loc 3 20 36 is_stmt 1
  20:src/../h/tcb.hpp **** 
 314              		.loc 3 20 45 is_stmt 0
 315 01ac 13071000 		li	a4,1
 316 01b0 2384E702 		sb	a4,40(a5)
 317              	.LVL25:
 318              	.LBE42:
 319              	.LBE41:
  48:src/tcb.cpp   ****     TCB::yield();
 320              		.loc 1 48 5 is_stmt 1
  48:src/tcb.cpp   ****     TCB::yield();
 321              		.loc 1 48 15 is_stmt 0
 322 01b4 97000000 		call	_ZN3TCB5yieldEv
 322      E7800000 
 323              	.LVL26:
  49:src/tcb.cpp   **** }
 324              		.loc 1 49 1
 325 01bc 83308101 		ld	ra,24(sp)
 326              		.cfi_restore 1
 327 01c0 03340101 		ld	s0,16(sp)
 328              		.cfi_restore 8
 329              		.cfi_def_cfa 2, 32
 330 01c4 83348100 		ld	s1,8(sp)
 331              		.cfi_restore 9
 332 01c8 13010102 		addi	sp,sp,32
 333              		.cfi_def_cfa_offset 0
 334 01cc 67800000 		jr	ra
 335              		.cfi_endproc
 336              	.LFE60:
 338              		.align	2
 339              		.globl	_ZN3TCB8dispatchEv
 341              	_ZN3TCB8dispatchEv:
 342              	.LFB59:
  32:src/tcb.cpp   **** void TCB::dispatch() {
 343              		.loc 1 32 22 is_stmt 1
 344              		.cfi_startproc
 345 01d0 130101FE 		addi	sp,sp,-32
 346              		.cfi_def_cfa_offset 32
 347 01d4 233C1100 		sd	ra,24(sp)
 348 01d8 23388100 		sd	s0,16(sp)
 349 01dc 23349100 		sd	s1,8(sp)
 350              		.cfi_offset 1, -8
 351              		.cfi_offset 8, -16
 352              		.cfi_offset 9, -24
 353 01e0 13040102 		addi	s0,sp,32
 354              		.cfi_def_cfa 8, 0
GAS LISTING /tmp/ccsdQGfN.s 			page 11


  33:src/tcb.cpp   ****     TCB *old = running;
 355              		.loc 1 33 5
  33:src/tcb.cpp   ****     TCB *old = running;
 356              		.loc 1 33 10 is_stmt 0
 357 01e4 97040000 		ld	s1,.LANCHOR0+16
 357      83B40400 
 358              	.LVL27:
  34:src/tcb.cpp   ****     if (!old->isFinished() && !old->isSleeping && !old->blocked) {
 359              		.loc 1 34 5 is_stmt 1
 360              	.LBB43:
 361              	.LBB44:
  18:src/../h/tcb.hpp **** 
 362              		.loc 3 18 31
  18:src/../h/tcb.hpp **** 
 363              		.loc 3 18 38 is_stmt 0
 364 01ec 83C78402 		lbu	a5,40(s1)
 365              	.LVL28:
 366              	.LBE44:
 367              	.LBE43:
  34:src/tcb.cpp   ****     if (!old->isFinished() && !old->isSleeping && !old->blocked) {
 368              		.loc 1 34 48
 369 01f0 639A0700 		bnez	a5,.L25
  34:src/tcb.cpp   ****     if (!old->isFinished() && !old->isSleeping && !old->blocked) {
 370              		.loc 1 34 37 discriminator 1
 371 01f4 83C70404 		lbu	a5,64(s1)
  34:src/tcb.cpp   ****     if (!old->isFinished() && !old->isSleeping && !old->blocked) {
 372              		.loc 1 34 28 discriminator 1
 373 01f8 63960700 		bnez	a5,.L25
  34:src/tcb.cpp   ****     if (!old->isFinished() && !old->isSleeping && !old->blocked) {
 374              		.loc 1 34 57 discriminator 3
 375 01fc 83C71404 		lbu	a5,65(s1)
  34:src/tcb.cpp   ****     if (!old->isFinished() && !old->isSleeping && !old->blocked) {
 376              		.loc 1 34 48 discriminator 3
 377 0200 638E0702 		beqz	a5,.L28
 378              	.L25:
  37:src/tcb.cpp   ****     running = Scheduler::get();
 379              		.loc 1 37 5 is_stmt 1
  37:src/tcb.cpp   ****     running = Scheduler::get();
 380              		.loc 1 37 29 is_stmt 0
 381 0204 97000000 		call	_ZN9Scheduler3getEv@plt
 381      E7800000 
 382              	.LVL29:
  37:src/tcb.cpp   ****     running = Scheduler::get();
 383              		.loc 1 37 13
 384 020c 97070000 		sd	a0,.LANCHOR0+16,a5
 384      23B0A700 
  38:src/tcb.cpp   ****     if (old != running) {
 385              		.loc 1 38 5 is_stmt 1
 386 0214 638AA400 		beq	s1,a0,.L24
  39:src/tcb.cpp   ****         TCB::contextSwitch(&old->context, &running->context);
 387              		.loc 1 39 9
  39:src/tcb.cpp   ****         TCB::contextSwitch(&old->context, &running->context);
 388              		.loc 1 39 27 is_stmt 0
 389 0218 93050501 		addi	a1,a0,16
 390 021c 13850401 		addi	a0,s1,16
 391 0220 97000000 		call	_ZN3TCB13contextSwitchEPNS_7ContextES1_@plt
 391      E7800000 
GAS LISTING /tmp/ccsdQGfN.s 			page 12


 392              	.LVL30:
 393              	.L24:
  41:src/tcb.cpp   **** }
 394              		.loc 1 41 1
 395 0228 83308101 		ld	ra,24(sp)
 396              		.cfi_remember_state
 397              		.cfi_restore 1
 398 022c 03340101 		ld	s0,16(sp)
 399              		.cfi_restore 8
 400              		.cfi_def_cfa 2, 32
 401 0230 83348100 		ld	s1,8(sp)
 402              		.cfi_restore 9
 403              	.LVL31:
 404 0234 13010102 		addi	sp,sp,32
 405              		.cfi_def_cfa_offset 0
 406 0238 67800000 		jr	ra
 407              	.LVL32:
 408              	.L28:
 409              		.cfi_restore_state
  35:src/tcb.cpp   ****         Scheduler::put(old);
 410              		.loc 1 35 9 is_stmt 1
  35:src/tcb.cpp   ****         Scheduler::put(old);
 411              		.loc 1 35 23 is_stmt 0
 412 023c 13850400 		mv	a0,s1
 413 0240 97000000 		call	_ZN9Scheduler3putEP3TCB@plt
 413      E7800000 
 414              	.LVL33:
 415 0248 6FF0DFFB 		j	.L25
 416              		.cfi_endproc
 417              	.LFE59:
 419              		.align	2
 420              		.globl	_ZN3TCB10putToSleepEm
 422              	_ZN3TCB10putToSleepEm:
 423              	.LFB61:
  51:src/tcb.cpp   **** void TCB::putToSleep(time_t t) { //  YILED DISPATCH
 424              		.loc 1 51 32 is_stmt 1
 425              		.cfi_startproc
 426              	.LVL34:
 427 024c 130101FE 		addi	sp,sp,-32
 428              		.cfi_def_cfa_offset 32
 429 0250 233C1100 		sd	ra,24(sp)
 430 0254 23388100 		sd	s0,16(sp)
 431 0258 23349100 		sd	s1,8(sp)
 432 025c 23302101 		sd	s2,0(sp)
 433              		.cfi_offset 1, -8
 434              		.cfi_offset 8, -16
 435              		.cfi_offset 9, -24
 436              		.cfi_offset 18, -32
 437 0260 13040102 		addi	s0,sp,32
 438              		.cfi_def_cfa 8, 0
  52:src/tcb.cpp   ****     TCB::running->timeSliceCounter = 0;
 439              		.loc 1 52 5
  52:src/tcb.cpp   ****     TCB::running->timeSliceCounter = 0;
 440              		.loc 1 52 36 is_stmt 0
 441 0264 97040000 		lla	s1,.LANCHOR0
 441      93840400 
 442 026c 23BC0400 		sd	zero,24(s1)
GAS LISTING /tmp/ccsdQGfN.s 			page 13


  53:src/tcb.cpp   ****     TCB::running->timeToSleep = t;
 443              		.loc 1 53 5 is_stmt 1
  53:src/tcb.cpp   ****     TCB::running->timeToSleep = t;
 444              		.loc 1 53 19 is_stmt 0
 445 0270 03B90401 		ld	s2,16(s1)
  53:src/tcb.cpp   ****     TCB::running->timeToSleep = t;
 446              		.loc 1 53 31
 447 0274 233CA902 		sd	a0,56(s2)
  54:src/tcb.cpp   ****     TCB::running->isSleeping = true;
 448              		.loc 1 54 5 is_stmt 1
  54:src/tcb.cpp   ****     TCB::running->isSleeping = true;
 449              		.loc 1 54 30 is_stmt 0
 450 0278 93071000 		li	a5,1
 451 027c 2300F904 		sb	a5,64(s2)
  55:src/tcb.cpp   ****     TCB::sleeping.addLast(TCB::running);
 452              		.loc 1 55 5 is_stmt 1
 453              	.LVL35:
 454              	.LBB45:
 455              	.LBB46:
 456              	.LBB47:
 457              	.LBB48:
  23:src/../h/../h/../h/list.hpp ****         }
 458              		.loc 2 23 38 is_stmt 0
 459 0280 13050001 		li	a0,16
 460              	.LVL36:
 461 0284 97000000 		call	_ZN9Allocator7_mallocEm@plt
 461      E7800000 
 462              	.LVL37:
 463              	.LBE48:
 464              	.LBE47:
 465              	.LBB49:
 466              	.LBB50:
  20:src/../h/../h/../h/list.hpp **** 
 467              		.loc 2 20 58
 468 028c 23302501 		sd	s2,0(a0)
 469 0290 23340500 		sd	zero,8(a0)
 470              	.LVL38:
 471              	.LBE50:
 472              	.LBE49:
  47:src/../h/../h/../h/list.hpp **** 
  48:src/../h/../h/../h/list.hpp ****     List(const List<T> &) = delete;
  49:src/../h/../h/../h/list.hpp **** 
  50:src/../h/../h/../h/list.hpp ****     List<T> &operator=(const List<T> &) = delete;
  51:src/../h/../h/../h/list.hpp **** 
  52:src/../h/../h/../h/list.hpp ****     void addFirst(T *data)
  53:src/../h/../h/../h/list.hpp ****     {
  54:src/../h/../h/../h/list.hpp ****         Elem *elem = new Elem(data, head);
  55:src/../h/../h/../h/list.hpp ****         head = elem;
  56:src/../h/../h/../h/list.hpp ****         if (!tail) { tail = head; }
  57:src/../h/../h/../h/list.hpp ****     }
  58:src/../h/../h/../h/list.hpp **** 
  59:src/../h/../h/../h/list.hpp ****     void addLast(T *data)
  60:src/../h/../h/../h/list.hpp ****     {
  61:src/../h/../h/../h/list.hpp ****         Elem *elem = new Elem(data, 0);
  62:src/../h/../h/../h/list.hpp ****         if (tail)
 473              		.loc 2 62 13
 474 0294 83B78400 		ld	a5,8(s1)
GAS LISTING /tmp/ccsdQGfN.s 			page 14


 475              		.loc 2 62 9
 476 0298 63880702 		beqz	a5,.L30
  63:src/../h/../h/../h/list.hpp ****         {
  64:src/../h/../h/../h/list.hpp ****             tail->next = elem;
 477              		.loc 2 64 13
 478 029c 23B4A700 		sd	a0,8(a5)
  65:src/../h/../h/../h/list.hpp ****             tail = elem;
 479              		.loc 2 65 13
 480 02a0 97070000 		sd	a0,.LANCHOR0+8,a5
 480      23B0A700 
 481              	.L31:
 482              	.LVL39:
 483              	.LBE46:
 484              	.LBE45:
  56:src/tcb.cpp   ****     TCB::dispatch();
 485              		.loc 1 56 5 is_stmt 1
  56:src/tcb.cpp   ****     TCB::dispatch();
 486              		.loc 1 56 18 is_stmt 0
 487 02a8 97000000 		call	_ZN3TCB8dispatchEv
 487      E7800000 
 488              	.LVL40:
 489              		.loc 1 58 1
 490 02b0 83308101 		ld	ra,24(sp)
 491              		.cfi_remember_state
 492              		.cfi_restore 1
 493 02b4 03340101 		ld	s0,16(sp)
 494              		.cfi_restore 8
 495              		.cfi_def_cfa 2, 32
 496 02b8 83348100 		ld	s1,8(sp)
 497              		.cfi_restore 9
 498 02bc 03390100 		ld	s2,0(sp)
 499              		.cfi_restore 18
 500 02c0 13010102 		addi	sp,sp,32
 501              		.cfi_def_cfa_offset 0
 502 02c4 67800000 		jr	ra
 503              	.LVL41:
 504              	.L30:
 505              		.cfi_restore_state
 506              	.LBB52:
 507              	.LBB51:
  66:src/../h/../h/../h/list.hpp ****         } else
  67:src/../h/../h/../h/list.hpp ****         {
  68:src/../h/../h/../h/list.hpp ****             head = tail = elem;
 508              		.loc 2 68 13
 509 02c8 97070000 		lla	a5,.LANCHOR0
 509      93870700 
 510 02d0 23B4A700 		sd	a0,8(a5)
 511 02d4 23B0A700 		sd	a0,0(a5)
 512 02d8 6FF01FFD 		j	.L31
 513              	.LBE51:
 514              	.LBE52:
 515              		.cfi_endproc
 516              	.LFE61:
 518              		.align	2
 520              	_GLOBAL__sub_I__ZN3TCB7runningE:
 521              	.LFB72:
 522              		.loc 1 58 1 is_stmt 1
GAS LISTING /tmp/ccsdQGfN.s 			page 15


 523              		.cfi_startproc
 524 02dc 130101FF 		addi	sp,sp,-16
 525              		.cfi_def_cfa_offset 16
 526 02e0 23341100 		sd	ra,8(sp)
 527 02e4 23308100 		sd	s0,0(sp)
 528              		.cfi_offset 1, -8
 529              		.cfi_offset 8, -16
 530 02e8 13040101 		addi	s0,sp,16
 531              		.cfi_def_cfa 8, 0
 532              		.loc 1 58 1 is_stmt 0
 533 02ec B7050100 		li	a1,65536
 534 02f0 9385F5FF 		addi	a1,a1,-1
 535 02f4 13051000 		li	a0,1
 536 02f8 97000000 		call	_Z41__static_initialization_and_destruction_0ii
 536      E7800000 
 537              	.LVL42:
 538 0300 83308100 		ld	ra,8(sp)
 539              		.cfi_restore 1
 540 0304 03340100 		ld	s0,0(sp)
 541              		.cfi_restore 8
 542              		.cfi_def_cfa 2, 16
 543 0308 13010101 		addi	sp,sp,16
 544              		.cfi_def_cfa_offset 0
 545 030c 67800000 		jr	ra
 546              		.cfi_endproc
 547              	.LFE72:
 549              		.section	.init_array,"aw"
 550              		.align	3
 551 0000 00000000 		.dword	_GLOBAL__sub_I__ZN3TCB7runningE
 551      00000000 
 552              		.globl	_ZN3TCB5putcPE
 553              		.globl	_ZN3TCB16timeSliceCounterE
 554              		.globl	_ZN3TCB8sleepingE
 555              		.globl	_ZN3TCB7runningE
 556              		.bss
 557              		.align	3
 558              		.set	.LANCHOR0,. + 0
 561              	_ZN3TCB8sleepingE:
 562 0000 00000000 		.zero	16
 562      00000000 
 562      00000000 
 562      00000000 
 565              	_ZN3TCB7runningE:
 566 0010 00000000 		.zero	8
 566      00000000 
 569              	_ZN3TCB16timeSliceCounterE:
 570 0018 00000000 		.zero	8
 570      00000000 
 573              	_ZN3TCB5putcPE:
 574 0020 00000000 		.zero	4
 575              		.text
 576              	.Letext0:
 577              		.file 4 "src/../h/../lib/hw.h"
 578              		.file 5 "src/../h/../h/../h/../h/Allocator.hpp"
 579              		.file 6 "src/../h/../h/scheduler.hpp"
 580              		.file 7 "src/../h/../h/tipovi.hpp"
 581              		.file 8 "src/../h/../h/sem.hpp"
GAS LISTING /tmp/ccsdQGfN.s 			page 16


 582              		.file 9 "src/../h/../h/../h/../h/riscv.hpp"
 4588              		.align	3
 4591              	DW.ref.__gxx_personality_v0:
 4592 0000 00000000 		.dword	__gxx_personality_v0
 4592      00000000 
 4593              		.ident	"GCC: (Ubuntu 9.4.0-1ubuntu1~20.04) 9.4.0"
 4594              		.section	.note.GNU-stack,"",@progbits
GAS LISTING /tmp/ccsdQGfN.s 			page 17


DEFINED SYMBOLS
                            *ABS*:0000000000000000 tcb.cpp
     /tmp/ccsdQGfN.s:8      .text:0000000000000000 _Z41__static_initialization_and_destruction_0ii
     /tmp/ccsdQGfN.s:12     .text:0000000000000000 .L0 
     /tmp/ccsdQGfN.s:14     .text:0000000000000000 .L0 
     /tmp/ccsdQGfN.s:15     .text:0000000000000004 .L0 
     /tmp/ccsdQGfN.s:17     .text:0000000000000008 .L0 
     /tmp/ccsdQGfN.s:19     .text:000000000000000c .L0 
     /tmp/ccsdQGfN.s:21     .text:000000000000000c .L0 
     /tmp/ccsdQGfN.s:25     .text:0000000000000018 .L0 
     /tmp/ccsdQGfN.s:26     .text:0000000000000018 .L0 
     /tmp/ccsdQGfN.s:27     .text:0000000000000018 .L0 
     /tmp/ccsdQGfN.s:29     .text:000000000000001c .L0 
     /tmp/ccsdQGfN.s:32     .text:0000000000000020 .L0 
     /tmp/ccsdQGfN.s:34     .text:0000000000000020 .L0 
     /tmp/ccsdQGfN.s:43     .text:000000000000002c .L0 
     /tmp/ccsdQGfN.s:51     .text:000000000000003c .L0 
     /tmp/ccsdQGfN.s:52     .text:0000000000000040 .L0 
     /tmp/ccsdQGfN.s:58     .text:0000000000000040 _ZN3TCB13thread_createEPPS_PFvPvES2_Pm
     /tmp/ccsdQGfN.s:61     .text:0000000000000040 .L0 
     /tmp/ccsdQGfN.s:4591   .data.rel.local.DW.ref.__gxx_personality_v0:0000000000000000 DW.ref.__gxx_personality_v0
     /tmp/ccsdQGfN.s:65     .text:0000000000000040 .L0 
     /tmp/ccsdQGfN.s:66     .text:0000000000000040 .L0 
     /tmp/ccsdQGfN.s:68     .text:0000000000000044 .L0 
     /tmp/ccsdQGfN.s:69     .text:0000000000000048 .L0 
     /tmp/ccsdQGfN.s:77     .text:0000000000000064 .L0 
     /tmp/ccsdQGfN.s:78     .text:0000000000000064 .L0 
     /tmp/ccsdQGfN.s:79     .text:0000000000000064 .L0 
     /tmp/ccsdQGfN.s:80     .text:0000000000000064 .L0 
     /tmp/ccsdQGfN.s:81     .text:0000000000000064 .L0 
     /tmp/ccsdQGfN.s:82     .text:0000000000000064 .L0 
     /tmp/ccsdQGfN.s:83     .text:0000000000000064 .L0 
     /tmp/ccsdQGfN.s:85     .text:0000000000000068 .L0 
     /tmp/ccsdQGfN.s:95     .text:0000000000000078 .L0 
     /tmp/ccsdQGfN.s:96     .text:0000000000000078 .L0 
     /tmp/ccsdQGfN.s:97     .text:0000000000000078 .L0 
     /tmp/ccsdQGfN.s:110    .text:0000000000000088 .L0 
     /tmp/ccsdQGfN.s:112    .text:000000000000008c .L0 
     /tmp/ccsdQGfN.s:116    .text:0000000000000094 .L0 
     /tmp/ccsdQGfN.s:280    .text:0000000000000174 _ZN3TCB13threadWrapperEv
     /tmp/ccsdQGfN.s:120    .text:00000000000000a4 .L0 
     /tmp/ccsdQGfN.s:122    .text:00000000000000a8 .L0 
     /tmp/ccsdQGfN.s:127    .text:00000000000000b0 .L0 
     /tmp/ccsdQGfN.s:141    .text:00000000000000e4 .L0 
     /tmp/ccsdQGfN.s:143    .text:00000000000000e8 .L0 
     /tmp/ccsdQGfN.s:144    .text:00000000000000e8 .L0 
     /tmp/ccsdQGfN.s:153    .text:00000000000000f8 .L0 
     /tmp/ccsdQGfN.s:157    .text:0000000000000100 .L0 
     /tmp/ccsdQGfN.s:165    .text:0000000000000108 .L0 
     /tmp/ccsdQGfN.s:167    .text:000000000000010c .L0 
     /tmp/ccsdQGfN.s:168    .text:000000000000010c .L0 
     /tmp/ccsdQGfN.s:170    .text:0000000000000110 .L0 
     /tmp/ccsdQGfN.s:171    .text:0000000000000114 .L0 
     /tmp/ccsdQGfN.s:173    .text:0000000000000118 .L0 
     /tmp/ccsdQGfN.s:174    .text:0000000000000118 .L0 
     /tmp/ccsdQGfN.s:176    .text:000000000000011c .L0 
     /tmp/ccsdQGfN.s:178    .text:0000000000000120 .L0 
GAS LISTING /tmp/ccsdQGfN.s 			page 18


     /tmp/ccsdQGfN.s:180    .text:0000000000000124 .L0 
     /tmp/ccsdQGfN.s:183    .text:0000000000000128 .L0 
     /tmp/ccsdQGfN.s:186    .text:000000000000012c .L0 
     /tmp/ccsdQGfN.s:189    .text:0000000000000130 .L0 
     /tmp/ccsdQGfN.s:194    .text:0000000000000134 .L0 
     /tmp/ccsdQGfN.s:197    .text:0000000000000138 .L0 
     /tmp/ccsdQGfN.s:200    .text:000000000000013c .L0 
     /tmp/ccsdQGfN.s:201    .text:000000000000013c .L0 
     /tmp/ccsdQGfN.s:202    .text:000000000000013c .L0 
     /tmp/ccsdQGfN.s:203    .text:000000000000013c .L0 
     /tmp/ccsdQGfN.s:204    .text:000000000000013c .L0 
     /tmp/ccsdQGfN.s:205    .text:000000000000013c .L0 
     /tmp/ccsdQGfN.s:206    .text:000000000000013c .L0 
     /tmp/ccsdQGfN.s:207    .text:000000000000013c .L0 
     /tmp/ccsdQGfN.s:213    .text:0000000000000140 .L0 
     /tmp/ccsdQGfN.s:214    .text:0000000000000140 .L0 
     /tmp/ccsdQGfN.s:224    .text:0000000000000158 .L0 
     /tmp/ccsdQGfN.s:250    .text:0000000000000158 _ZN3TCB5yieldEv
     /tmp/ccsdQGfN.s:253    .text:0000000000000158 .L0 
     /tmp/ccsdQGfN.s:254    .text:0000000000000158 .L0 
     /tmp/ccsdQGfN.s:255    .text:000000000000015c .L0 
     /tmp/ccsdQGfN.s:257    .text:0000000000000160 .L0 
     /tmp/ccsdQGfN.s:259    .text:0000000000000164 .L0 
     /tmp/ccsdQGfN.s:261    .text:0000000000000164 .L0 
         src/tcb.cpp:29     .text:0000000000000164 .L0 
     /tmp/ccsdQGfN.s:268    .text:0000000000000168 .L0 
     /tmp/ccsdQGfN.s:269    .text:000000000000016c .L0 
     /tmp/ccsdQGfN.s:270    .text:000000000000016c .L0 
     /tmp/ccsdQGfN.s:272    .text:0000000000000170 .L0 
     /tmp/ccsdQGfN.s:274    .text:0000000000000174 .L0 
     /tmp/ccsdQGfN.s:283    .text:0000000000000174 .L0 
     /tmp/ccsdQGfN.s:284    .text:0000000000000174 .L0 
     /tmp/ccsdQGfN.s:285    .text:0000000000000178 .L0 
     /tmp/ccsdQGfN.s:289    .text:0000000000000184 .L0 
     /tmp/ccsdQGfN.s:290    .text:0000000000000184 .L0 
     /tmp/ccsdQGfN.s:291    .text:0000000000000184 .L0 
     /tmp/ccsdQGfN.s:293    .text:0000000000000188 .L0 
     /tmp/ccsdQGfN.s:295    .text:0000000000000188 .L0 
     /tmp/ccsdQGfN.s:296    .text:0000000000000188 .L0 
     /tmp/ccsdQGfN.s:299    .text:0000000000000190 .L0 
     /tmp/ccsdQGfN.s:300    .text:0000000000000190 .L0 
     /tmp/ccsdQGfN.s:304    .text:00000000000001a0 .L0 
     /tmp/ccsdQGfN.s:308    .text:00000000000001a8 .L0 
     /tmp/ccsdQGfN.s:309    .text:00000000000001a8 .L0 
     /tmp/ccsdQGfN.s:314    .text:00000000000001ac .L0 
     /tmp/ccsdQGfN.s:315    .text:00000000000001ac .L0 
     /tmp/ccsdQGfN.s:321    .text:00000000000001b4 .L0 
     /tmp/ccsdQGfN.s:322    .text:00000000000001b4 .L0 
     /tmp/ccsdQGfN.s:325    .text:00000000000001bc .L0 
     /tmp/ccsdQGfN.s:326    .text:00000000000001c0 .L0 
     /tmp/ccsdQGfN.s:328    .text:00000000000001c4 .L0 
     /tmp/ccsdQGfN.s:329    .text:00000000000001c4 .L0 
     /tmp/ccsdQGfN.s:331    .text:00000000000001c8 .L0 
     /tmp/ccsdQGfN.s:333    .text:00000000000001cc .L0 
     /tmp/ccsdQGfN.s:335    .text:00000000000001d0 .L0 
     /tmp/ccsdQGfN.s:341    .text:00000000000001d0 _ZN3TCB8dispatchEv
     /tmp/ccsdQGfN.s:344    .text:00000000000001d0 .L0 
GAS LISTING /tmp/ccsdQGfN.s 			page 19


     /tmp/ccsdQGfN.s:345    .text:00000000000001d0 .L0 
     /tmp/ccsdQGfN.s:346    .text:00000000000001d4 .L0 
     /tmp/ccsdQGfN.s:350    .text:00000000000001e0 .L0 
     /tmp/ccsdQGfN.s:351    .text:00000000000001e0 .L0 
     /tmp/ccsdQGfN.s:352    .text:00000000000001e0 .L0 
     /tmp/ccsdQGfN.s:354    .text:00000000000001e4 .L0 
     /tmp/ccsdQGfN.s:356    .text:00000000000001e4 .L0 
     /tmp/ccsdQGfN.s:357    .text:00000000000001e4 .L0 
     /tmp/ccsdQGfN.s:362    .text:00000000000001ec .L0 
     /tmp/ccsdQGfN.s:363    .text:00000000000001ec .L0 
     /tmp/ccsdQGfN.s:364    .text:00000000000001ec .L0 
     /tmp/ccsdQGfN.s:369    .text:00000000000001f0 .L0 
     /tmp/ccsdQGfN.s:371    .text:00000000000001f4 .L0 
     /tmp/ccsdQGfN.s:373    .text:00000000000001f8 .L0 
     /tmp/ccsdQGfN.s:375    .text:00000000000001fc .L0 
     /tmp/ccsdQGfN.s:377    .text:0000000000000200 .L0 
     /tmp/ccsdQGfN.s:380    .text:0000000000000204 .L0 
     /tmp/ccsdQGfN.s:381    .text:0000000000000204 .L0 
     /tmp/ccsdQGfN.s:384    .text:000000000000020c .L0 
     /tmp/ccsdQGfN.s:386    .text:0000000000000214 .L0 
     /tmp/ccsdQGfN.s:388    .text:0000000000000218 .L0 
     /tmp/ccsdQGfN.s:389    .text:0000000000000218 .L0 
     /tmp/ccsdQGfN.s:395    .text:0000000000000228 .L0 
     /tmp/ccsdQGfN.s:396    .text:000000000000022c .L0 
     /tmp/ccsdQGfN.s:397    .text:000000000000022c .L0 
     /tmp/ccsdQGfN.s:399    .text:0000000000000230 .L0 
     /tmp/ccsdQGfN.s:400    .text:0000000000000230 .L0 
     /tmp/ccsdQGfN.s:402    .text:0000000000000234 .L0 
     /tmp/ccsdQGfN.s:405    .text:0000000000000238 .L0 
     /tmp/ccsdQGfN.s:409    .text:000000000000023c .L0 
     /tmp/ccsdQGfN.s:411    .text:000000000000023c .L0 
     /tmp/ccsdQGfN.s:412    .text:000000000000023c .L0 
     /tmp/ccsdQGfN.s:416    .text:000000000000024c .L0 
     /tmp/ccsdQGfN.s:422    .text:000000000000024c _ZN3TCB10putToSleepEm
     /tmp/ccsdQGfN.s:425    .text:000000000000024c .L0 
     /tmp/ccsdQGfN.s:427    .text:000000000000024c .L0 
     /tmp/ccsdQGfN.s:428    .text:0000000000000250 .L0 
     /tmp/ccsdQGfN.s:433    .text:0000000000000260 .L0 
     /tmp/ccsdQGfN.s:434    .text:0000000000000260 .L0 
     /tmp/ccsdQGfN.s:435    .text:0000000000000260 .L0 
     /tmp/ccsdQGfN.s:436    .text:0000000000000260 .L0 
     /tmp/ccsdQGfN.s:438    .text:0000000000000264 .L0 
     /tmp/ccsdQGfN.s:440    .text:0000000000000264 .L0 
     /tmp/ccsdQGfN.s:441    .text:0000000000000264 .L0 
     /tmp/ccsdQGfN.s:444    .text:0000000000000270 .L0 
     /tmp/ccsdQGfN.s:445    .text:0000000000000270 .L0 
     /tmp/ccsdQGfN.s:447    .text:0000000000000274 .L0 
     /tmp/ccsdQGfN.s:449    .text:0000000000000278 .L0 
     /tmp/ccsdQGfN.s:450    .text:0000000000000278 .L0 
     /tmp/ccsdQGfN.s:458    .text:0000000000000280 .L0 
     /tmp/ccsdQGfN.s:459    .text:0000000000000280 .L0 
     /tmp/ccsdQGfN.s:468    .text:000000000000028c .L0 
     /tmp/ccsdQGfN.s:474    .text:0000000000000294 .L0 
     /tmp/ccsdQGfN.s:476    .text:0000000000000298 .L0 
     /tmp/ccsdQGfN.s:478    .text:000000000000029c .L0 
     /tmp/ccsdQGfN.s:480    .text:00000000000002a0 .L0 
     /tmp/ccsdQGfN.s:486    .text:00000000000002a8 .L0 
GAS LISTING /tmp/ccsdQGfN.s 			page 20


     /tmp/ccsdQGfN.s:487    .text:00000000000002a8 .L0 
     /tmp/ccsdQGfN.s:490    .text:00000000000002b0 .L0 
     /tmp/ccsdQGfN.s:491    .text:00000000000002b4 .L0 
     /tmp/ccsdQGfN.s:492    .text:00000000000002b4 .L0 
     /tmp/ccsdQGfN.s:494    .text:00000000000002b8 .L0 
     /tmp/ccsdQGfN.s:495    .text:00000000000002b8 .L0 
     /tmp/ccsdQGfN.s:497    .text:00000000000002bc .L0 
     /tmp/ccsdQGfN.s:499    .text:00000000000002c0 .L0 
     /tmp/ccsdQGfN.s:501    .text:00000000000002c4 .L0 
     /tmp/ccsdQGfN.s:505    .text:00000000000002c8 .L0 
     /tmp/ccsdQGfN.s:509    .text:00000000000002c8 .L0 
     /tmp/ccsdQGfN.s:515    .text:00000000000002dc .L0 
     /tmp/ccsdQGfN.s:520    .text:00000000000002dc _GLOBAL__sub_I__ZN3TCB7runningE
     /tmp/ccsdQGfN.s:523    .text:00000000000002dc .L0 
     /tmp/ccsdQGfN.s:524    .text:00000000000002dc .L0 
     /tmp/ccsdQGfN.s:525    .text:00000000000002e0 .L0 
     /tmp/ccsdQGfN.s:528    .text:00000000000002e8 .L0 
     /tmp/ccsdQGfN.s:529    .text:00000000000002e8 .L0 
     /tmp/ccsdQGfN.s:531    .text:00000000000002ec .L0 
     /tmp/ccsdQGfN.s:533    .text:00000000000002ec .L0 
     /tmp/ccsdQGfN.s:539    .text:0000000000000304 .L0 
     /tmp/ccsdQGfN.s:541    .text:0000000000000308 .L0 
     /tmp/ccsdQGfN.s:542    .text:0000000000000308 .L0 
     /tmp/ccsdQGfN.s:544    .text:000000000000030c .L0 
     /tmp/ccsdQGfN.s:546    .text:0000000000000310 .L0 
     /tmp/ccsdQGfN.s:573    .bss:0000000000000020 _ZN3TCB5putcPE
     /tmp/ccsdQGfN.s:569    .bss:0000000000000018 _ZN3TCB16timeSliceCounterE
     /tmp/ccsdQGfN.s:561    .bss:0000000000000000 _ZN3TCB8sleepingE
     /tmp/ccsdQGfN.s:565    .bss:0000000000000010 _ZN3TCB7runningE
     /tmp/ccsdQGfN.s:558    .bss:0000000000000000 .LANCHOR0
     /tmp/ccsdQGfN.s:583    .text:0000000000000310 .L0 
     /tmp/ccsdQGfN.s:43     .text:000000000000002c .L0 
     /tmp/ccsdQGfN.s:117    .text:0000000000000098 .L0 
     /tmp/ccsdQGfN.s:300    .text:0000000000000190 .L0 
     /tmp/ccsdQGfN.s:357    .text:00000000000001e4 .L0 
     /tmp/ccsdQGfN.s:384    .text:000000000000020c .L0 
     /tmp/ccsdQGfN.s:441    .text:0000000000000264 .L0 
     /tmp/ccsdQGfN.s:480    .text:00000000000002a0 .L0 
     /tmp/ccsdQGfN.s:509    .text:00000000000002c8 .L0 
     /tmp/ccsdQGfN.s:31     .text:0000000000000020 .L4
     /tmp/ccsdQGfN.s:23     .text:0000000000000014 .L1
     /tmp/ccsdQGfN.s:192    .text:0000000000000134 .L11
     /tmp/ccsdQGfN.s:151    .text:00000000000000f8 .L12
     /tmp/ccsdQGfN.s:155    .text:0000000000000100 .L13
     /tmp/ccsdQGfN.s:160    .text:0000000000000108 .L9
     /tmp/ccsdQGfN.s:114    .text:0000000000000094 .L7
     /tmp/ccsdQGfN.s:125    .text:00000000000000b0 .L8
     /tmp/ccsdQGfN.s:378    .text:0000000000000204 .L25
     /tmp/ccsdQGfN.s:408    .text:000000000000023c .L28
     /tmp/ccsdQGfN.s:393    .text:0000000000000228 .L24
     /tmp/ccsdQGfN.s:504    .text:00000000000002c8 .L30
     /tmp/ccsdQGfN.s:481    .text:00000000000002a8 .L31
     /tmp/ccsdQGfN.s:99     .text:000000000000007c .LEHB0
     /tmp/ccsdQGfN.s:59     .text:0000000000000040 .LFB57
     /tmp/ccsdQGfN.s:102    .text:0000000000000084 .LEHE0
     /tmp/ccsdQGfN.s:145    .text:00000000000000ec .LEHB1
     /tmp/ccsdQGfN.s:148    .text:00000000000000f4 .LEHE1
GAS LISTING /tmp/ccsdQGfN.s 			page 21


     /tmp/ccsdQGfN.s:199    .text:000000000000013c .L14
     /tmp/ccsdQGfN.s:218    .text:0000000000000150 .LEHB2
     /tmp/ccsdQGfN.s:221    .text:0000000000000158 .LEHE2
     /tmp/ccsdQGfN.s:2556   .debug_abbrev:0000000000000000 .Ldebug_abbrev0
     /tmp/ccsdQGfN.s:4507   .debug_str:0000000000000a85 .LASF198
     /tmp/ccsdQGfN.s:4303   .debug_str:00000000000004a5 .LASF199
     /tmp/ccsdQGfN.s:4471   .debug_str:0000000000000993 .LASF200
     /tmp/ccsdQGfN.s:5      .text:0000000000000000 .Ltext0
     /tmp/ccsdQGfN.s:576    .text:0000000000000310 .Letext0
     /tmp/ccsdQGfN.s:4161   .debug_line:0000000000000000 .Ldebug_line0
     /tmp/ccsdQGfN.s:4305   .debug_str:00000000000004b1 .LASF0
     /tmp/ccsdQGfN.s:4339   .debug_str:00000000000005ce .LASF1
     /tmp/ccsdQGfN.s:4437   .debug_str:0000000000000892 .LASF2
     /tmp/ccsdQGfN.s:4447   .debug_str:00000000000008da .LASF4
     /tmp/ccsdQGfN.s:4317   .debug_str:0000000000000507 .LASF3
     /tmp/ccsdQGfN.s:4177   .debug_str:0000000000000072 .LASF5
     /tmp/ccsdQGfN.s:4411   .debug_str:00000000000007fa .LASF6
     /tmp/ccsdQGfN.s:4405   .debug_str:00000000000007c5 .LASF7
     /tmp/ccsdQGfN.s:4329   .debug_str:0000000000000583 .LASF8
     /tmp/ccsdQGfN.s:4281   .debug_str:00000000000003e4 .LASF9
     /tmp/ccsdQGfN.s:4289   .debug_str:0000000000000430 .LASF10
     /tmp/ccsdQGfN.s:4215   .debug_str:00000000000001c4 .LASF11
     /tmp/ccsdQGfN.s:4267   .debug_str:0000000000000385 .LASF12
     /tmp/ccsdQGfN.s:4231   .debug_str:0000000000000230 .LASF13
     /tmp/ccsdQGfN.s:4213   .debug_str:00000000000001b4 .LASF14
     /tmp/ccsdQGfN.s:4483   .debug_str:0000000000000a02 .LASF15
     /tmp/ccsdQGfN.s:4257   .debug_str:000000000000030b .LASF16
     /tmp/ccsdQGfN.s:4469   .debug_str:000000000000097d .LASF17
     /tmp/ccsdQGfN.s:4199   .debug_str:0000000000000130 .LASF25
     /tmp/ccsdQGfN.s:4461   .debug_str:0000000000000947 .LASF29
     /tmp/ccsdQGfN.s:4217   .debug_str:00000000000001d3 .LASF18
     /tmp/ccsdQGfN.s:4337   .debug_str:00000000000005c9 .LASF19
     /tmp/ccsdQGfN.s:4397   .debug_str:0000000000000785 .LASF20
     /tmp/ccsdQGfN.s:4475   .debug_str:00000000000009d4 .LASF40
     /tmp/ccsdQGfN.s:4193   .debug_str:0000000000000107 .LASF75
     /tmp/ccsdQGfN.s:4183   .debug_str:000000000000009c .LASF77
     /tmp/ccsdQGfN.s:4363   .debug_str:0000000000000690 .LASF21
     /tmp/ccsdQGfN.s:4511   .debug_str:0000000000000b5f .LASF23
     /tmp/ccsdQGfN.s:4185   .debug_str:00000000000000b1 .LASF22
     /tmp/ccsdQGfN.s:4449   .debug_str:00000000000008e1 .LASF24
     /tmp/ccsdQGfN.s:4503   .debug_str:0000000000000a78 .LASF27
     /tmp/ccsdQGfN.s:4379   .debug_str:00000000000006f9 .LASF36
     /tmp/ccsdQGfN.s:4279   .debug_str:00000000000003da .LASF26
     /tmp/ccsdQGfN.s:4463   .debug_str:0000000000000953 .LASF103
     /tmp/ccsdQGfN.s:4565   .debug_str:0000000000000cf4 .LASF201
     /tmp/ccsdQGfN.s:4297   .debug_str:000000000000045e .LASF202
     /tmp/ccsdQGfN.s:4543   .debug_str:0000000000000c52 .LASF28
     /tmp/ccsdQGfN.s:4535   .debug_str:0000000000000c1f .LASF30
     /tmp/ccsdQGfN.s:4335   .debug_str:00000000000005c4 .LASF31
     /tmp/ccsdQGfN.s:4569   .debug_str:0000000000000d23 .LASF33
     /tmp/ccsdQGfN.s:4575   .debug_str:0000000000000d71 .LASF32
     /tmp/ccsdQGfN.s:4191   .debug_str:00000000000000ef .LASF34
     /tmp/ccsdQGfN.s:4167   .debug_str:000000000000000c .LASF35
     /tmp/ccsdQGfN.s:4547   .debug_str:0000000000000c7a .LASF37
     /tmp/ccsdQGfN.s:4205   .debug_str:0000000000000154 .LASF38
     /tmp/ccsdQGfN.s:4181   .debug_str:0000000000000084 .LASF39
     /tmp/ccsdQGfN.s:4467   .debug_str:000000000000096a .LASF84
GAS LISTING /tmp/ccsdQGfN.s 			page 22


     /tmp/ccsdQGfN.s:4209   .debug_str:000000000000017e .LASF203
     /tmp/ccsdQGfN.s:4381   .debug_str:000000000000071f .LASF41
     /tmp/ccsdQGfN.s:4371   .debug_str:00000000000006ca .LASF42
     /tmp/ccsdQGfN.s:4487   .debug_str:0000000000000a15 .LASF43
     /tmp/ccsdQGfN.s:4265   .debug_str:000000000000036e .LASF49
     /tmp/ccsdQGfN.s:4441   .debug_str:00000000000008ad .LASF204
     /tmp/ccsdQGfN.s:4427   .debug_str:0000000000000850 .LASF205
     /tmp/ccsdQGfN.s:4431   .debug_str:000000000000086c .LASF44
     /tmp/ccsdQGfN.s:4211   .debug_str:0000000000000197 .LASF45
     /tmp/ccsdQGfN.s:4355   .debug_str:0000000000000657 .LASF46
     /tmp/ccsdQGfN.s:4259   .debug_str:0000000000000321 .LASF47
     /tmp/ccsdQGfN.s:4403   .debug_str:00000000000007b9 .LASF48
     /tmp/ccsdQGfN.s:4545   .debug_str:0000000000000c5c .LASF50
     /tmp/ccsdQGfN.s:4583   .debug_str:0000000000000d98 .LASF51
     /tmp/ccsdQGfN.s:4567   .debug_str:0000000000000d08 .LASF52
     /tmp/ccsdQGfN.s:4459   .debug_str:000000000000093c .LASF53
     /tmp/ccsdQGfN.s:4327   .debug_str:0000000000000566 .LASF54
     /tmp/ccsdQGfN.s:4423   .debug_str:0000000000000842 .LASF55
     /tmp/ccsdQGfN.s:4171   .debug_str:0000000000000024 .LASF56
     /tmp/ccsdQGfN.s:4541   .debug_str:0000000000000c44 .LASF57
     /tmp/ccsdQGfN.s:4473   .debug_str:00000000000009aa .LASF58
     /tmp/ccsdQGfN.s:4321   .debug_str:0000000000000530 .LASF59
     /tmp/ccsdQGfN.s:4253   .debug_str:00000000000002cb .LASF60
     /tmp/ccsdQGfN.s:4491   .debug_str:0000000000000a31 .LASF61
     /tmp/ccsdQGfN.s:4243   .debug_str:00000000000002a7 .LASF62
     /tmp/ccsdQGfN.s:4493   .debug_str:0000000000000a39 .LASF63
     /tmp/ccsdQGfN.s:4377   .debug_str:00000000000006e2 .LASF64
     /tmp/ccsdQGfN.s:4201   .debug_str:000000000000013a .LASF65
     /tmp/ccsdQGfN.s:4527   .debug_str:0000000000000bd9 .LASF66
     /tmp/ccsdQGfN.s:4347   .debug_str:0000000000000615 .LASF67
     /tmp/ccsdQGfN.s:4537   .debug_str:0000000000000c24 .LASF68
     /tmp/ccsdQGfN.s:4421   .debug_str:0000000000000837 .LASF69
     /tmp/ccsdQGfN.s:4509   .debug_str:0000000000000b49 .LASF70
     /tmp/ccsdQGfN.s:4429   .debug_str:0000000000000867 .LASF206
     /tmp/ccsdQGfN.s:4417   .debug_str:000000000000081c .LASF71
     /tmp/ccsdQGfN.s:4361   .debug_str:000000000000067e .LASF72
     /tmp/ccsdQGfN.s:4481   .debug_str:00000000000009f4 .LASF73
     /tmp/ccsdQGfN.s:4237   .debug_str:0000000000000256 .LASF74
     /tmp/ccsdQGfN.s:4341   .debug_str:00000000000005e1 .LASF76
     /tmp/ccsdQGfN.s:4513   .debug_str:0000000000000b77 .LASF78
     /tmp/ccsdQGfN.s:4505   .debug_str:0000000000000a7d .LASF79
     /tmp/ccsdQGfN.s:4489   .debug_str:0000000000000a28 .LASF80
     /tmp/ccsdQGfN.s:4285   .debug_str:0000000000000408 .LASF81
     /tmp/ccsdQGfN.s:4359   .debug_str:0000000000000671 .LASF82
     /tmp/ccsdQGfN.s:4275   .debug_str:00000000000003b2 .LASF83
     /tmp/ccsdQGfN.s:4439   .debug_str:00000000000008a0 .LASF85
     /tmp/ccsdQGfN.s:4415   .debug_str:0000000000000817 .LASF86
     /tmp/ccsdQGfN.s:4175   .debug_str:0000000000000066 .LASF87
     /tmp/ccsdQGfN.s:4247   .debug_str:00000000000002b7 .LASF88
     /tmp/ccsdQGfN.s:4225   .debug_str:000000000000020c .LASF89
     /tmp/ccsdQGfN.s:4571   .debug_str:0000000000000d42 .LASF207
     /tmp/ccsdQGfN.s:4165   .debug_str:0000000000000007 .LASF90
     /tmp/ccsdQGfN.s:4465   .debug_str:0000000000000964 .LASF91
     /tmp/ccsdQGfN.s:4523   .debug_str:0000000000000bbc .LASF92
     /tmp/ccsdQGfN.s:4515   .debug_str:0000000000000b87 .LASF93
     /tmp/ccsdQGfN.s:4521   .debug_str:0000000000000bb3 .LASF94
     /tmp/ccsdQGfN.s:4399   .debug_str:000000000000078f .LASF95
GAS LISTING /tmp/ccsdQGfN.s 			page 23


     /tmp/ccsdQGfN.s:4373   .debug_str:00000000000006cf .LASF96
     /tmp/ccsdQGfN.s:4389   .debug_str:0000000000000755 .LASF97
     /tmp/ccsdQGfN.s:4501   .debug_str:0000000000000a6a .LASF98
     /tmp/ccsdQGfN.s:4433   .debug_str:0000000000000875 .LASF99
     /tmp/ccsdQGfN.s:4413   .debug_str:0000000000000801 .LASF100
     /tmp/ccsdQGfN.s:4203   .debug_str:0000000000000146 .LASF180
     /tmp/ccsdQGfN.s:4349   .debug_str:0000000000000622 .LASF182
     /tmp/ccsdQGfN.s:4233   .debug_str:0000000000000240 .LASF101
     /tmp/ccsdQGfN.s:4173   .debug_str:000000000000003e .LASF102
     /tmp/ccsdQGfN.s:4455   .debug_str:0000000000000916 .LASF104
     /tmp/ccsdQGfN.s:4445   .debug_str:00000000000008cf .LASF105
     /tmp/ccsdQGfN.s:4557   .debug_str:0000000000000cbb .LASF106
     /tmp/ccsdQGfN.s:4409   .debug_str:00000000000007ed .LASF107
     /tmp/ccsdQGfN.s:4163   .debug_str:0000000000000000 .LASF108
     /tmp/ccsdQGfN.s:4229   .debug_str:0000000000000225 .LASF109
     /tmp/ccsdQGfN.s:4559   .debug_str:0000000000000cc6 .LASF110
     /tmp/ccsdQGfN.s:4529   .debug_str:0000000000000bf0 .LASF111
     /tmp/ccsdQGfN.s:4283   .debug_str:00000000000003f4 .LASF112
     /tmp/ccsdQGfN.s:4555   .debug_str:0000000000000cb2 .LASF113
     /tmp/ccsdQGfN.s:4331   .debug_str:0000000000000596 .LASF114
     /tmp/ccsdQGfN.s:4393   .debug_str:0000000000000772 .LASF115
     /tmp/ccsdQGfN.s:4343   .debug_str:00000000000005e7 .LASF116
     /tmp/ccsdQGfN.s:4187   .debug_str:00000000000000bb .LASF117
     /tmp/ccsdQGfN.s:4277   .debug_str:00000000000003be .LASF118
     /tmp/ccsdQGfN.s:4249   .debug_str:00000000000002c0 .LASF119
     /tmp/ccsdQGfN.s:4219   .debug_str:00000000000001d8 .LASF120
     /tmp/ccsdQGfN.s:4485   .debug_str:0000000000000a0e .LASF121
     /tmp/ccsdQGfN.s:4561   .debug_str:0000000000000ccc .LASF122
     /tmp/ccsdQGfN.s:4295   .debug_str:0000000000000458 .LASF123
     /tmp/ccsdQGfN.s:4263   .debug_str:0000000000000355 .LASF124
     /tmp/ccsdQGfN.s:4235   .debug_str:000000000000024e .LASF125
     /tmp/ccsdQGfN.s:4401   .debug_str:000000000000079b .LASF126
     /tmp/ccsdQGfN.s:4519   .debug_str:0000000000000ba2 .LASF127
     /tmp/ccsdQGfN.s:4353   .debug_str:0000000000000643 .LASF128
     /tmp/ccsdQGfN.s:4369   .debug_str:00000000000006b5 .LASF129
     /tmp/ccsdQGfN.s:4345   .debug_str:0000000000000601 .LASF130
     /tmp/ccsdQGfN.s:4457   .debug_str:0000000000000927 .LASF131
     /tmp/ccsdQGfN.s:4245   .debug_str:00000000000002ad .LASF132
     /tmp/ccsdQGfN.s:4227   .debug_str:000000000000021f .LASF133
     /tmp/ccsdQGfN.s:4261   .debug_str:000000000000033d .LASF134
     /tmp/ccsdQGfN.s:4169   .debug_str:000000000000001c .LASF135
     /tmp/ccsdQGfN.s:4207   .debug_str:0000000000000164 .LASF136
     /tmp/ccsdQGfN.s:4577   .debug_str:0000000000000d7e .LASF137
     /tmp/ccsdQGfN.s:4497   .debug_str:0000000000000a53 .LASF138
     /tmp/ccsdQGfN.s:4549   .debug_str:0000000000000c93 .LASF139
     /tmp/ccsdQGfN.s:4385   .debug_str:000000000000072b .LASF140
     /tmp/ccsdQGfN.s:4299   .debug_str:0000000000000476 .LASF141
     /tmp/ccsdQGfN.s:4293   .debug_str:000000000000044d .LASF142
     /tmp/ccsdQGfN.s:4301   .debug_str:000000000000048d .LASF143
     /tmp/ccsdQGfN.s:4531   .debug_str:0000000000000bfb .LASF144
     /tmp/ccsdQGfN.s:4525   .debug_str:0000000000000bc4 .LASF148
     /tmp/ccsdQGfN.s:4579   .debug_str:0000000000000d87 .LASF145
     /tmp/ccsdQGfN.s:4391   .debug_str:000000000000075d .LASF146
     /tmp/ccsdQGfN.s:4539   .debug_str:0000000000000c3d .LASF147
     /tmp/ccsdQGfN.s:4419   .debug_str:0000000000000824 .LASF149
     /tmp/ccsdQGfN.s:4383   .debug_str:0000000000000724 .LASF150
     /tmp/ccsdQGfN.s:4333   .debug_str:00000000000005b1 .LASF151
GAS LISTING /tmp/ccsdQGfN.s 			page 24


     /tmp/ccsdQGfN.s:4375   .debug_str:00000000000006da .LASF152
     /tmp/ccsdQGfN.s:4479   .debug_str:00000000000009e0 .LASF153
     /tmp/ccsdQGfN.s:4325   .debug_str:000000000000055e .LASF154
     /tmp/ccsdQGfN.s:4271   .debug_str:0000000000000399 .LASF155
     /tmp/ccsdQGfN.s:4351   .debug_str:000000000000063b .LASF156
     /tmp/ccsdQGfN.s:4313   .debug_str:00000000000004dd .LASF157
     /tmp/ccsdQGfN.s:4581   .debug_str:0000000000000d90 .LASF158
     /tmp/ccsdQGfN.s:4311   .debug_str:00000000000004c9 .LASF159
     /tmp/ccsdQGfN.s:4477   .debug_str:00000000000009d9 .LASF160
     /tmp/ccsdQGfN.s:4451   .debug_str:00000000000008fc .LASF161
     /tmp/ccsdQGfN.s:4453   .debug_str:000000000000090f .LASF162
     /tmp/ccsdQGfN.s:4223   .debug_str:00000000000001f9 .LASF163
     /tmp/ccsdQGfN.s:4251   .debug_str:00000000000002c5 .LASF164
     /tmp/ccsdQGfN.s:4499   .debug_str:0000000000000a58 .LASF165
     /tmp/ccsdQGfN.s:4309   .debug_str:00000000000004c3 .LASF166
     /tmp/ccsdQGfN.s:4241   .debug_str:0000000000000295 .LASF167
     /tmp/ccsdQGfN.s:4269   .debug_str:0000000000000394 .LASF168
     /tmp/ccsdQGfN.s:4517   .debug_str:0000000000000b91 .LASF169
     /tmp/ccsdQGfN.s:4179   .debug_str:0000000000000079 .LASF170
     /tmp/ccsdQGfN.s:4443   .debug_str:00000000000008b7 .LASF171
     /tmp/ccsdQGfN.s:4435   .debug_str:0000000000000887 .LASF172
     /tmp/ccsdQGfN.s:4573   .debug_str:0000000000000d59 .LASF173
     /tmp/ccsdQGfN.s:4551   .debug_str:0000000000000c99 .LASF174
     /tmp/ccsdQGfN.s:4315   .debug_str:00000000000004f1 .LASF175
     /tmp/ccsdQGfN.s:4221   .debug_str:00000000000001ef .LASF176
     /tmp/ccsdQGfN.s:4365   .debug_str:0000000000000698 .LASF177
     /tmp/ccsdQGfN.s:4553   .debug_str:0000000000000ca3 .LASF178
     /tmp/ccsdQGfN.s:4287   .debug_str:0000000000000414 .LASF179
     /tmp/ccsdQGfN.s:4407   .debug_str:00000000000007d8 .LASF181
     /tmp/ccsdQGfN.s:4323   .debug_str:000000000000053c .LASF183
     /tmp/ccsdQGfN.s:4425   .debug_str:000000000000084b .LASF184
     /tmp/ccsdQGfN.s:4197   .debug_str:000000000000011f .LASF185
     /tmp/ccsdQGfN.s:4357   .debug_str:000000000000065f .LASF186
     /tmp/ccsdQGfN.s:4533   .debug_str:0000000000000c04 .LASF187
     /tmp/ccsdQGfN.s:4495   .debug_str:0000000000000a44 .LASF188
     /tmp/ccsdQGfN.s:4387   .debug_str:0000000000000735 .LASF189
     /tmp/ccsdQGfN.s:521    .text:00000000000002dc .LFB72
     /tmp/ccsdQGfN.s:547    .text:0000000000000310 .LFE72
     /tmp/ccsdQGfN.s:537    .text:0000000000000300 .LVL42
     /tmp/ccsdQGfN.s:4189   .debug_str:00000000000000c5 .LASF190
     /tmp/ccsdQGfN.s:9      .text:0000000000000000 .LFB71
     /tmp/ccsdQGfN.s:53     .text:0000000000000040 .LFE71
     /tmp/ccsdQGfN.s:4291   .debug_str:000000000000043e .LASF191
     /tmp/ccsdQGfN.s:4395   .debug_str:000000000000077a .LASF192
     /tmp/ccsdQGfN.s:38     .text:000000000000002c .LBB25
     /tmp/ccsdQGfN.s:49     .text:000000000000003c .LBE25
     /tmp/ccsdQGfN.s:3793   .debug_loc:0000000000000000 .LLST0
     /tmp/ccsdQGfN.s:4273   .debug_str:00000000000003ad .LASF193
     /tmp/ccsdQGfN.s:4255   .debug_str:00000000000002ec .LASF194
     /tmp/ccsdQGfN.s:4307   .debug_str:00000000000004be .LASF208
     /tmp/ccsdQGfN.s:4195   .debug_str:000000000000010c .LASF195
     /tmp/ccsdQGfN.s:423    .text:000000000000024c .LFB61
     /tmp/ccsdQGfN.s:516    .text:00000000000002dc .LFE61
     /tmp/ccsdQGfN.s:3802   .debug_loc:000000000000002c .LLST16
     /tmp/ccsdQGfN.s:454    .text:0000000000000280 .LBB45
     /tmp/ccsdQGfN.s:4153   .debug_ranges:0000000000000000 .Ldebug_ranges0
     /tmp/ccsdQGfN.s:3821   .debug_loc:0000000000000079 .LLST17
GAS LISTING /tmp/ccsdQGfN.s 			page 25


     /tmp/ccsdQGfN.s:3832   .debug_loc:00000000000000af .LLST18
     /tmp/ccsdQGfN.s:3847   .debug_loc:00000000000000f7 .LLST19
     /tmp/ccsdQGfN.s:456    .text:0000000000000280 .LBB47
     /tmp/ccsdQGfN.s:464    .text:000000000000028c .LBE47
     /tmp/ccsdQGfN.s:3858   .debug_loc:000000000000012d .LLST20
     /tmp/ccsdQGfN.s:462    .text:000000000000028c .LVL37
     /tmp/ccsdQGfN.s:465    .text:000000000000028c .LBB49
     /tmp/ccsdQGfN.s:472    .text:0000000000000294 .LBE49
     /tmp/ccsdQGfN.s:3866   .debug_loc:0000000000000151 .LLST21
     /tmp/ccsdQGfN.s:3874   .debug_loc:0000000000000175 .LLST22
     /tmp/ccsdQGfN.s:3881   .debug_loc:0000000000000198 .LLST23
     /tmp/ccsdQGfN.s:488    .text:00000000000002b0 .LVL40
     /tmp/ccsdQGfN.s:281    .text:0000000000000174 .LFB60
     /tmp/ccsdQGfN.s:336    .text:00000000000001d0 .LFE60
     /tmp/ccsdQGfN.s:311    .text:00000000000001ac .LBB41
     /tmp/ccsdQGfN.s:319    .text:00000000000001b4 .LBE41
     /tmp/ccsdQGfN.s:3888   .debug_loc:00000000000001bb .LLST12
     /tmp/ccsdQGfN.s:3896   .debug_loc:00000000000001df .LLST13
     /tmp/ccsdQGfN.s:297    .text:0000000000000190 .LVL22
     /tmp/ccsdQGfN.s:323    .text:00000000000001bc .LVL26
     /tmp/ccsdQGfN.s:342    .text:00000000000001d0 .LFB59
     /tmp/ccsdQGfN.s:417    .text:000000000000024c .LFE59
     /tmp/ccsdQGfN.s:3903   .debug_loc:0000000000000202 .LLST14
     /tmp/ccsdQGfN.s:360    .text:00000000000001ec .LBB43
     /tmp/ccsdQGfN.s:367    .text:00000000000001f0 .LBE43
     /tmp/ccsdQGfN.s:3914   .debug_loc:0000000000000238 .LLST15
     /tmp/ccsdQGfN.s:382    .text:000000000000020c .LVL29
     /tmp/ccsdQGfN.s:392    .text:0000000000000228 .LVL30
     /tmp/ccsdQGfN.s:414    .text:0000000000000248 .LVL33
     /tmp/ccsdQGfN.s:251    .text:0000000000000158 .LFB58
     /tmp/ccsdQGfN.s:275    .text:0000000000000174 .LFE58
     /tmp/ccsdQGfN.s:225    .text:0000000000000158 .LFE57
     /tmp/ccsdQGfN.s:4367   .debug_str:00000000000006ae .LASF196
     /tmp/ccsdQGfN.s:3921   .debug_loc:000000000000025b .LLST1
     /tmp/ccsdQGfN.s:3954   .debug_loc:00000000000002e3 .LLST2
     /tmp/ccsdQGfN.s:3980   .debug_loc:0000000000000355 .LLST3
     /tmp/ccsdQGfN.s:4006   .debug_loc:00000000000003c7 .LLST4
     /tmp/ccsdQGfN.s:92     .text:0000000000000078 .LBB35
     /tmp/ccsdQGfN.s:106    .text:0000000000000088 .LBE35
     /tmp/ccsdQGfN.s:4046   .debug_loc:0000000000000465 .LLST5
     /tmp/ccsdQGfN.s:101    .text:0000000000000084 .LVL6
     /tmp/ccsdQGfN.s:107    .text:0000000000000088 .LBB37
     /tmp/ccsdQGfN.s:163    .text:0000000000000108 .LBE37
     /tmp/ccsdQGfN.s:4055   .debug_loc:000000000000048a .LLST6
     /tmp/ccsdQGfN.s:4068   .debug_loc:00000000000004c2 .LLST7
     /tmp/ccsdQGfN.s:4079   .debug_loc:00000000000004f8 .LLST8
     /tmp/ccsdQGfN.s:4111   .debug_loc:0000000000000570 .LLST9
     /tmp/ccsdQGfN.s:4122   .debug_loc:00000000000005a6 .LLST10
     /tmp/ccsdQGfN.s:147    .text:00000000000000f4 .LVL9
     /tmp/ccsdQGfN.s:210    .text:0000000000000140 .LBB39
     /tmp/ccsdQGfN.s:223    .text:0000000000000158 .LBE39
     /tmp/ccsdQGfN.s:4133   .debug_loc:00000000000005dc .LLST11
     /tmp/ccsdQGfN.s:216    .text:000000000000014c .LVL20
     /tmp/ccsdQGfN.s:220    .text:0000000000000158 .LVL21
     /tmp/ccsdQGfN.s:4319   .debug_str:0000000000000519 .LASF197
     /tmp/ccsdQGfN.s:4563   .debug_str:0000000000000ce5 .LASF209
     /tmp/ccsdQGfN.s:4239   .debug_str:000000000000027d .LASF210
GAS LISTING /tmp/ccsdQGfN.s 			page 26


     /tmp/ccsdQGfN.s:37     .text:000000000000002c .LVL1
     /tmp/ccsdQGfN.s:46     .text:000000000000003c .LVL2
     /tmp/ccsdQGfN.s:426    .text:000000000000024c .LVL34
     /tmp/ccsdQGfN.s:460    .text:0000000000000284 .LVL36
     /tmp/ccsdQGfN.s:453    .text:0000000000000280 .LVL35
     /tmp/ccsdQGfN.s:482    .text:00000000000002a8 .LVL39
     /tmp/ccsdQGfN.s:503    .text:00000000000002c8 .LVL41
     /tmp/ccsdQGfN.s:470    .text:0000000000000294 .LVL38
     /tmp/ccsdQGfN.s:310    .text:00000000000001ac .LVL24
     /tmp/ccsdQGfN.s:317    .text:00000000000001b4 .LVL25
     /tmp/ccsdQGfN.s:358    .text:00000000000001ec .LVL27
     /tmp/ccsdQGfN.s:403    .text:0000000000000234 .LVL31
     /tmp/ccsdQGfN.s:407    .text:000000000000023c .LVL32
     /tmp/ccsdQGfN.s:365    .text:00000000000001f0 .LVL28
     /tmp/ccsdQGfN.s:64     .text:0000000000000040 .LVL3
     /tmp/ccsdQGfN.s:98     .text:000000000000007c .LVL5
     /tmp/ccsdQGfN.s:181    .text:0000000000000124 .LVL13
     /tmp/ccsdQGfN.s:191    .text:0000000000000134 .LVL16
     /tmp/ccsdQGfN.s:195    .text:0000000000000138 .LVL17
     /tmp/ccsdQGfN.s:198    .text:000000000000013c .LVL18
     /tmp/ccsdQGfN.s:184    .text:0000000000000128 .LVL14
     /tmp/ccsdQGfN.s:187    .text:000000000000012c .LVL15
     /tmp/ccsdQGfN.s:124    .text:00000000000000b0 .LVL8
     /tmp/ccsdQGfN.s:150    .text:00000000000000f8 .LVL10
     /tmp/ccsdQGfN.s:158    .text:0000000000000104 .LVL11
     /tmp/ccsdQGfN.s:91     .text:0000000000000078 .LVL4
     /tmp/ccsdQGfN.s:104    .text:0000000000000088 .LVL7
     /tmp/ccsdQGfN.s:161    .text:0000000000000108 .LVL12
     /tmp/ccsdQGfN.s:209    .text:0000000000000140 .LVL19
     /tmp/ccsdQGfN.s:584    .debug_info:0000000000000000 .Ldebug_info0
     /tmp/ccsdQGfN.s:484    .text:00000000000002a8 .LBE45
     /tmp/ccsdQGfN.s:506    .text:00000000000002c8 .LBB52
     /tmp/ccsdQGfN.s:514    .text:00000000000002dc .LBE52
     /tmp/ccsdQGfN.s:228    .gcc_except_table:0000000000000000 .LLSDA57

UNDEFINED SYMBOLS
_ZN9Allocator7_mallocEm
_ZN9Scheduler3putEP3TCB
_ZN9Allocator9_mem_freeEPv
_Unwind_Resume
__gxx_personality_v0
_ZN5Riscv10popSppSpieEv
_ZN9Scheduler3getEv
_ZN3TCB13contextSwitchEPNS_7ContextES1_
