GAS LISTING /tmp/cc3EnQ8m.s 			page 1


   1              		.file	"ThreadSleep_C_API_test.cpp"
   2              		.option pic
   3              		.option norelax
   4              		.text
   5              	.Ltext0:
   6              		.section	.rodata.str1.8,"aMS",@progbits,1
   7              		.align	3
   8              	.LC0:
   9 0000 48656C6C 		.string	"Hello "
   9      6F2000
  10 0007 00       		.align	3
  11              	.LC1:
  12 0008 20210A00 		.string	" !\n"
  13              		.text
  14              		.align	2
  16              	_ZL9sleepyRunPv:
  17              	.LFB57:
  18              		.file 1 "test/ThreadSleep_C_API_test.cpp"
   1:test/ThreadSleep_C_API_test.cpp **** #include "../h/syscall_c.h"
   2:test/ThreadSleep_C_API_test.cpp **** 
   3:test/ThreadSleep_C_API_test.cpp **** #include "printing.hpp"
   4:test/ThreadSleep_C_API_test.cpp **** 
   5:test/ThreadSleep_C_API_test.cpp **** static volatile bool finished[2];
   6:test/ThreadSleep_C_API_test.cpp **** 
   7:test/ThreadSleep_C_API_test.cpp **** static void sleepyRun(void *arg) {
  19              		.loc 1 7 34
  20              		.cfi_startproc
  21              	.LVL0:
  22 0000 130101FE 		addi	sp,sp,-32
  23              		.cfi_def_cfa_offset 32
  24 0004 233C1100 		sd	ra,24(sp)
  25 0008 23388100 		sd	s0,16(sp)
  26 000c 23349100 		sd	s1,8(sp)
  27 0010 23302101 		sd	s2,0(sp)
  28              		.cfi_offset 1, -8
  29              		.cfi_offset 8, -16
  30              		.cfi_offset 9, -24
  31              		.cfi_offset 18, -32
  32 0014 13040102 		addi	s0,sp,32
  33              		.cfi_def_cfa 8, 0
   8:test/ThreadSleep_C_API_test.cpp ****     time_t sleep_time = *((time_t *) arg);
  34              		.loc 1 8 5
  35              		.loc 1 8 12 is_stmt 0
  36 0018 03390500 		ld	s2,0(a0)
  37              	.LVL1:
   9:test/ThreadSleep_C_API_test.cpp ****     int i = 6;
  38              		.loc 1 9 5 is_stmt 1
  39              		.loc 1 9 9 is_stmt 0
  40 001c 93046000 		li	s1,6
  41              	.LVL2:
  42              	.L3:
  10:test/ThreadSleep_C_API_test.cpp ****     while (--i > 0) {
  43              		.loc 1 10 5 is_stmt 1
  44              		.loc 1 10 16
  45 0020 9B84F4FF 		addiw	s1,s1,-1
  46              	.LVL3:
  47 0024 63549004 		blez	s1,.L2
GAS LISTING /tmp/cc3EnQ8m.s 			page 2


  11:test/ThreadSleep_C_API_test.cpp **** 
  12:test/ThreadSleep_C_API_test.cpp ****         printString("Hello ");
  48              		.loc 1 12 9
  49              		.loc 1 12 20 is_stmt 0
  50 0028 17050000 		lla	a0,.LC0
  50      13050500 
  51 0030 97000000 		call	_Z11printStringPKc@plt
  51      E7800000 
  52              	.LVL4:
  13:test/ThreadSleep_C_API_test.cpp ****         printInt(sleep_time);
  53              		.loc 1 13 9 is_stmt 1
  54              		.loc 1 13 17 is_stmt 0
  55 0038 13060000 		li	a2,0
  56 003c 9305A000 		li	a1,10
  57 0040 1B050900 		sext.w	a0,s2
  58 0044 97000000 		call	_Z8printIntiii@plt
  58      E7800000 
  59              	.LVL5:
  14:test/ThreadSleep_C_API_test.cpp ****         printString(" !\n");
  60              		.loc 1 14 9 is_stmt 1
  61              		.loc 1 14 20 is_stmt 0
  62 004c 17050000 		lla	a0,.LC1
  62      13050500 
  63 0054 97000000 		call	_Z11printStringPKc@plt
  63      E7800000 
  64              	.LVL6:
  15:test/ThreadSleep_C_API_test.cpp ****         time_sleep(sleep_time);
  65              		.loc 1 15 9 is_stmt 1
  66              		.loc 1 15 19 is_stmt 0
  67 005c 13050900 		mv	a0,s2
  68 0060 97000000 		call	_Z10time_sleepm@plt
  68      E7800000 
  69              	.LVL7:
  10:test/ThreadSleep_C_API_test.cpp **** 
  70              		.loc 1 10 5
  71 0068 6FF09FFB 		j	.L3
  72              	.L2:
  16:test/ThreadSleep_C_API_test.cpp ****     }
  17:test/ThreadSleep_C_API_test.cpp ****     finished[sleep_time/10-1] = true;
  73              		.loc 1 17 5 is_stmt 1
  74              		.loc 1 17 24 is_stmt 0
  75 006c 9307A000 		li	a5,10
  76 0070 3359F902 		divu	s2,s2,a5
  77              	.LVL8:
  78              		.loc 1 17 27
  79 0074 1309F9FF 		addi	s2,s2,-1
  80              		.loc 1 17 31
  81 0078 97070000 		lla	a5,.LANCHOR0
  81      93870700 
  82 0080 33892701 		add	s2,a5,s2
  83 0084 93071000 		li	a5,1
  84 0088 2300F900 		sb	a5,0(s2)
  18:test/ThreadSleep_C_API_test.cpp **** }
  85              		.loc 1 18 1
  86 008c 83308101 		ld	ra,24(sp)
  87              		.cfi_restore 1
  88 0090 03340101 		ld	s0,16(sp)
GAS LISTING /tmp/cc3EnQ8m.s 			page 3


  89              		.cfi_restore 8
  90              		.cfi_def_cfa 2, 32
  91 0094 83348100 		ld	s1,8(sp)
  92              		.cfi_restore 9
  93 0098 03390100 		ld	s2,0(sp)
  94              		.cfi_restore 18
  95 009c 13010102 		addi	sp,sp,32
  96              		.cfi_def_cfa_offset 0
  97 00a0 67800000 		jr	ra
  98              		.cfi_endproc
  99              	.LFE57:
 101              		.align	2
 102              		.globl	_Z12testSleepingv
 104              	_Z12testSleepingv:
 105              	.LFB58:
  19:test/ThreadSleep_C_API_test.cpp **** 
  20:test/ThreadSleep_C_API_test.cpp **** void testSleeping() {
 106              		.loc 1 20 21 is_stmt 1
 107              		.cfi_startproc
 108 00a4 130101FC 		addi	sp,sp,-64
 109              		.cfi_def_cfa_offset 64
 110 00a8 233C1102 		sd	ra,56(sp)
 111 00ac 23388102 		sd	s0,48(sp)
 112 00b0 23349102 		sd	s1,40(sp)
 113              		.cfi_offset 1, -8
 114              		.cfi_offset 8, -16
 115              		.cfi_offset 9, -24
 116 00b4 13040104 		addi	s0,sp,64
 117              		.cfi_def_cfa 8, 0
  21:test/ThreadSleep_C_API_test.cpp ****     const int sleepy_thread_count = 2;
 118              		.loc 1 21 5
 119              	.LVL9:
  22:test/ThreadSleep_C_API_test.cpp ****     time_t sleep_times[sleepy_thread_count] = {10, 20};
 120              		.loc 1 22 5
 121              		.loc 1 22 12 is_stmt 0
 122 00b8 9307A000 		li	a5,10
 123 00bc 2338F4FC 		sd	a5,-48(s0)
 124 00c0 93074001 		li	a5,20
 125 00c4 233CF4FC 		sd	a5,-40(s0)
  23:test/ThreadSleep_C_API_test.cpp ****     thread_t sleepyThread[sleepy_thread_count];
 126              		.loc 1 23 5 is_stmt 1
  24:test/ThreadSleep_C_API_test.cpp **** 
  25:test/ThreadSleep_C_API_test.cpp ****     for (int i = 0; i < sleepy_thread_count; i++) {
 127              		.loc 1 25 5
 128              	.LVL10:
 129              	.LBB2:
 130              		.loc 1 25 14 is_stmt 0
 131 00c8 93040000 		li	s1,0
 132 00cc 6F00C002 		j	.L7
 133              	.LVL11:
 134              	.L10:
  26:test/ThreadSleep_C_API_test.cpp ****         thread_create(&sleepyThread[i], sleepyRun, sleep_times + i);
 135              		.loc 1 26 9 is_stmt 1
 136              		.loc 1 26 64 is_stmt 0
 137 00d0 93973400 		slli	a5,s1,3
 138              		.loc 1 26 22
 139 00d4 130604FD 		addi	a2,s0,-48
GAS LISTING /tmp/cc3EnQ8m.s 			page 4


 140 00d8 3306F600 		add	a2,a2,a5
 141 00dc 97050000 		lla	a1,_ZL9sleepyRunPv
 141      93850500 
 142 00e4 130504FC 		addi	a0,s0,-64
 143 00e8 3305F500 		add	a0,a0,a5
 144 00ec 97000000 		call	_Z13thread_createPP3TCBPFvPvES2_@plt
 144      E7800000 
 145              	.LVL12:
  25:test/ThreadSleep_C_API_test.cpp ****         thread_create(&sleepyThread[i], sleepyRun, sleep_times + i);
 146              		.loc 1 25 5 is_stmt 1
 147 00f4 9B841400 		addiw	s1,s1,1
 148              	.LVL13:
 149              	.L7:
  25:test/ThreadSleep_C_API_test.cpp ****         thread_create(&sleepyThread[i], sleepyRun, sleep_times + i);
 150              		.loc 1 25 23 discriminator 1
 151 00f8 93071000 		li	a5,1
 152 00fc E3DA97FC 		ble	s1,a5,.L10
 153              	.L8:
 154              	.LBE2:
  27:test/ThreadSleep_C_API_test.cpp ****     }
  28:test/ThreadSleep_C_API_test.cpp **** 
  29:test/ThreadSleep_C_API_test.cpp ****     while (!(finished[0] && finished[1])) {}
 155              		.loc 1 29 5
 156              		.loc 1 29 12
 157              		.loc 1 29 24 is_stmt 0
 158 0100 97070000 		lbu	a5,.LANCHOR0
 158      83C70700 
 159              		.loc 1 29 12
 160 0108 E38C07FE 		beqz	a5,.L8
 161              		.loc 1 29 39 discriminator 2
 162 010c 97070000 		lbu	a5,.LANCHOR0+1
 162      83C70700 
 163              		.loc 1 29 12 discriminator 2
 164 0114 E38607FE 		beqz	a5,.L8
  30:test/ThreadSleep_C_API_test.cpp **** }
 165              		.loc 1 30 1
 166 0118 83308103 		ld	ra,56(sp)
 167              		.cfi_restore 1
 168 011c 03340103 		ld	s0,48(sp)
 169              		.cfi_restore 8
 170              		.cfi_def_cfa 2, 64
 171 0120 83348102 		ld	s1,40(sp)
 172              		.cfi_restore 9
 173              	.LVL14:
 174 0124 13010104 		addi	sp,sp,64
 175              		.cfi_def_cfa_offset 0
 176 0128 67800000 		jr	ra
 177              		.cfi_endproc
 178              	.LFE58:
 180              		.bss
 181              		.align	3
 182              		.set	.LANCHOR0,. + 0
 185              	_ZL8finished:
 186 0000 0000     		.zero	2
 187              		.text
 188              	.Letext0:
 189              		.file 2 "test/../h/../lib/hw.h"
GAS LISTING /tmp/cc3EnQ8m.s 			page 5


 190              		.file 3 "test/../h/../h/../h/list.hpp"
 191              		.file 4 "test/../h/tcb.hpp"
 192              		.file 5 "test/../h/../h/tipovi.hpp"
 193              		.file 6 "test/../h/../h/sem.hpp"
 194              		.file 7 "test/../h/syscall_c.h"
 195              		.file 8 "test/printing.hpp"
GAS LISTING /tmp/cc3EnQ8m.s 			page 6


DEFINED SYMBOLS
                            *ABS*:0000000000000000 ThreadSleep_C_API_test.cpp
     /tmp/cc3EnQ8m.s:16     .text:0000000000000000 _ZL9sleepyRunPv
     /tmp/cc3EnQ8m.s:20     .text:0000000000000000 .L0 
     /tmp/cc3EnQ8m.s:22     .text:0000000000000000 .L0 
     /tmp/cc3EnQ8m.s:23     .text:0000000000000004 .L0 
     /tmp/cc3EnQ8m.s:28     .text:0000000000000014 .L0 
     /tmp/cc3EnQ8m.s:29     .text:0000000000000014 .L0 
     /tmp/cc3EnQ8m.s:30     .text:0000000000000014 .L0 
     /tmp/cc3EnQ8m.s:31     .text:0000000000000014 .L0 
     /tmp/cc3EnQ8m.s:33     .text:0000000000000018 .L0 
     /tmp/cc3EnQ8m.s:35     .text:0000000000000018 .L0 
     /tmp/cc3EnQ8m.s:36     .text:0000000000000018 .L0 
     /tmp/cc3EnQ8m.s:39     .text:000000000000001c .L0 
     /tmp/cc3EnQ8m.s:40     .text:000000000000001c .L0 
     /tmp/cc3EnQ8m.s:44     .text:0000000000000020 .L0 
     /tmp/cc3EnQ8m.s:45     .text:0000000000000020 .L0 
     /tmp/cc3EnQ8m.s:49     .text:0000000000000028 .L0 
     /tmp/cc3EnQ8m.s:50     .text:0000000000000028 .L0 
     /tmp/cc3EnQ8m.s:54     .text:0000000000000038 .L0 
     /tmp/cc3EnQ8m.s:55     .text:0000000000000038 .L0 
     /tmp/cc3EnQ8m.s:61     .text:000000000000004c .L0 
     /tmp/cc3EnQ8m.s:62     .text:000000000000004c .L0 
     /tmp/cc3EnQ8m.s:66     .text:000000000000005c .L0 
     /tmp/cc3EnQ8m.s:67     .text:000000000000005c .L0 
     /tmp/cc3EnQ8m.s:71     .text:0000000000000068 .L0 
     /tmp/cc3EnQ8m.s:74     .text:000000000000006c .L0 
     /tmp/cc3EnQ8m.s:75     .text:000000000000006c .L0 
     /tmp/cc3EnQ8m.s:79     .text:0000000000000074 .L0 
     /tmp/cc3EnQ8m.s:81     .text:0000000000000078 .L0 
     /tmp/cc3EnQ8m.s:86     .text:000000000000008c .L0 
     /tmp/cc3EnQ8m.s:87     .text:0000000000000090 .L0 
     /tmp/cc3EnQ8m.s:89     .text:0000000000000094 .L0 
     /tmp/cc3EnQ8m.s:90     .text:0000000000000094 .L0 
     /tmp/cc3EnQ8m.s:92     .text:0000000000000098 .L0 
     /tmp/cc3EnQ8m.s:94     .text:000000000000009c .L0 
     /tmp/cc3EnQ8m.s:96     .text:00000000000000a0 .L0 
     /tmp/cc3EnQ8m.s:98     .text:00000000000000a4 .L0 
     /tmp/cc3EnQ8m.s:104    .text:00000000000000a4 _Z12testSleepingv
     /tmp/cc3EnQ8m.s:107    .text:00000000000000a4 .L0 
     /tmp/cc3EnQ8m.s:108    .text:00000000000000a4 .L0 
     /tmp/cc3EnQ8m.s:109    .text:00000000000000a8 .L0 
     /tmp/cc3EnQ8m.s:113    .text:00000000000000b4 .L0 
     /tmp/cc3EnQ8m.s:114    .text:00000000000000b4 .L0 
     /tmp/cc3EnQ8m.s:115    .text:00000000000000b4 .L0 
     /tmp/cc3EnQ8m.s:117    .text:00000000000000b8 .L0 
     /tmp/cc3EnQ8m.s:120    .text:00000000000000b8 .L0 
     /tmp/cc3EnQ8m.s:121    .text:00000000000000b8 .L0 
     /tmp/cc3EnQ8m.s:122    .text:00000000000000b8 .L0 
     /tmp/cc3EnQ8m.s:127    .text:00000000000000c8 .L0 
     /tmp/cc3EnQ8m.s:130    .text:00000000000000c8 .L0 
     /tmp/cc3EnQ8m.s:131    .text:00000000000000c8 .L0 
     /tmp/cc3EnQ8m.s:136    .text:00000000000000d0 .L0 
     /tmp/cc3EnQ8m.s:137    .text:00000000000000d0 .L0 
     /tmp/cc3EnQ8m.s:139    .text:00000000000000d4 .L0 
     /tmp/cc3EnQ8m.s:147    .text:00000000000000f4 .L0 
     /tmp/cc3EnQ8m.s:151    .text:00000000000000f8 .L0 
GAS LISTING /tmp/cc3EnQ8m.s 			page 7


     /tmp/cc3EnQ8m.s:156    .text:0000000000000100 .L0 
     /tmp/cc3EnQ8m.s:157    .text:0000000000000100 .L0 
     /tmp/cc3EnQ8m.s:158    .text:0000000000000100 .L0 
     /tmp/cc3EnQ8m.s:160    .text:0000000000000108 .L0 
     /tmp/cc3EnQ8m.s:162    .text:000000000000010c .L0 
     /tmp/cc3EnQ8m.s:164    .text:0000000000000114 .L0 
     /tmp/cc3EnQ8m.s:166    .text:0000000000000118 .L0 
     /tmp/cc3EnQ8m.s:167    .text:000000000000011c .L0 
     /tmp/cc3EnQ8m.s:169    .text:0000000000000120 .L0 
     /tmp/cc3EnQ8m.s:170    .text:0000000000000120 .L0 
     /tmp/cc3EnQ8m.s:172    .text:0000000000000124 .L0 
     /tmp/cc3EnQ8m.s:175    .text:0000000000000128 .L0 
     /tmp/cc3EnQ8m.s:177    .text:000000000000012c .L0 
     /tmp/cc3EnQ8m.s:182    .bss:0000000000000000 .LANCHOR0
     /tmp/cc3EnQ8m.s:185    .bss:0000000000000000 _ZL8finished
     /tmp/cc3EnQ8m.s:196    .text:000000000000012c .L0 
     /tmp/cc3EnQ8m.s:8      .rodata.str1.8:0000000000000000 .LC0
     /tmp/cc3EnQ8m.s:50     .text:0000000000000028 .L0 
     /tmp/cc3EnQ8m.s:11     .rodata.str1.8:0000000000000008 .LC1
     /tmp/cc3EnQ8m.s:62     .text:000000000000004c .L0 
     /tmp/cc3EnQ8m.s:81     .text:0000000000000078 .L0 
     /tmp/cc3EnQ8m.s:141    .text:00000000000000dc .L0 
     /tmp/cc3EnQ8m.s:158    .text:0000000000000100 .L0 
     /tmp/cc3EnQ8m.s:162    .text:000000000000010c .L0 
     /tmp/cc3EnQ8m.s:72     .text:000000000000006c .L2
     /tmp/cc3EnQ8m.s:42     .text:0000000000000020 .L3
     /tmp/cc3EnQ8m.s:149    .text:00000000000000f8 .L7
     /tmp/cc3EnQ8m.s:134    .text:00000000000000d0 .L10
     /tmp/cc3EnQ8m.s:153    .text:0000000000000100 .L8
     /tmp/cc3EnQ8m.s:1405   .debug_abbrev:0000000000000000 .Ldebug_abbrev0
     /tmp/cc3EnQ8m.s:2573   .debug_str:00000000000006f9 .LASF129
     /tmp/cc3EnQ8m.s:2459   .debug_str:00000000000003da .LASF130
     /tmp/cc3EnQ8m.s:2547   .debug_str:0000000000000648 .LASF131
     /tmp/cc3EnQ8m.s:5      .text:0000000000000000 .Ltext0
     /tmp/cc3EnQ8m.s:188    .text:000000000000012c .Letext0
     /tmp/cc3EnQ8m.s:2341   .debug_line:0000000000000000 .Ldebug_line0
     /tmp/cc3EnQ8m.s:2429   .debug_str:00000000000002d2 .LASF0
     /tmp/cc3EnQ8m.s:2443   .debug_str:0000000000000351 .LASF1
     /tmp/cc3EnQ8m.s:2521   .debug_str:000000000000059f .LASF2
     /tmp/cc3EnQ8m.s:2529   .debug_str:00000000000005cf .LASF4
     /tmp/cc3EnQ8m.s:2431   .debug_str:00000000000002df .LASF3
     /tmp/cc3EnQ8m.s:2357   .debug_str:0000000000000072 .LASF5
     /tmp/cc3EnQ8m.s:2503   .debug_str:000000000000052d .LASF6
     /tmp/cc3EnQ8m.s:2495   .debug_str:00000000000004f1 .LASF7
     /tmp/cc3EnQ8m.s:2437   .debug_str:000000000000031a .LASF8
     /tmp/cc3EnQ8m.s:2417   .debug_str:0000000000000288 .LASF9
     /tmp/cc3EnQ8m.s:2423   .debug_str:00000000000002b8 .LASF10
     /tmp/cc3EnQ8m.s:2371   .debug_str:00000000000000e4 .LASF11
     /tmp/cc3EnQ8m.s:2411   .debug_str:0000000000000251 .LASF12
     /tmp/cc3EnQ8m.s:2379   .debug_str:0000000000000128 .LASF13
     /tmp/cc3EnQ8m.s:2369   .debug_str:00000000000000d4 .LASF14
     /tmp/cc3EnQ8m.s:2555   .debug_str:000000000000069c .LASF15
     /tmp/cc3EnQ8m.s:2399   .debug_str:00000000000001c8 .LASF16
     /tmp/cc3EnQ8m.s:2545   .debug_str:0000000000000632 .LASF17
     /tmp/cc3EnQ8m.s:2599   .debug_str:0000000000000860 .LASF39
     /tmp/cc3EnQ8m.s:2591   .debug_str:0000000000000827 .LASF132
     /tmp/cc3EnQ8m.s:2551   .debug_str:0000000000000689 .LASF18
GAS LISTING /tmp/cc3EnQ8m.s 			page 8


     /tmp/cc3EnQ8m.s:2475   .debug_str:0000000000000465 .LASF19
     /tmp/cc3EnQ8m.s:2469   .debug_str:000000000000043e .LASF20
     /tmp/cc3EnQ8m.s:2559   .debug_str:00000000000006af .LASF22
     /tmp/cc3EnQ8m.s:2409   .debug_str:000000000000023a .LASF27
     /tmp/cc3EnQ8m.s:2525   .debug_str:00000000000005ba .LASF133
     /tmp/cc3EnQ8m.s:2515   .debug_str:000000000000056b .LASF134
     /tmp/cc3EnQ8m.s:2441   .debug_str:0000000000000348 .LASF21
     /tmp/cc3EnQ8m.s:2365   .debug_str:000000000000009d .LASF23
     /tmp/cc3EnQ8m.s:2457   .debug_str:00000000000003d2 .LASF24
     /tmp/cc3EnQ8m.s:2401   .debug_str:00000000000001de .LASF25
     /tmp/cc3EnQ8m.s:2491   .debug_str:00000000000004d5 .LASF26
     /tmp/cc3EnQ8m.s:2601   .debug_str:000000000000086a .LASF28
     /tmp/cc3EnQ8m.s:2627   .debug_str:0000000000000941 .LASF29
     /tmp/cc3EnQ8m.s:2615   .debug_str:00000000000008d9 .LASF30
     /tmp/cc3EnQ8m.s:2539   .debug_str:000000000000060e .LASF31
     /tmp/cc3EnQ8m.s:2435   .debug_str:00000000000002fd .LASF32
     /tmp/cc3EnQ8m.s:2511   .debug_str:000000000000055d .LASF33
     /tmp/cc3EnQ8m.s:2351   .debug_str:0000000000000024 .LASF34
     /tmp/cc3EnQ8m.s:2597   .debug_str:0000000000000852 .LASF35
     /tmp/cc3EnQ8m.s:2549   .debug_str:000000000000065f .LASF36
     /tmp/cc3EnQ8m.s:2433   .debug_str:00000000000002f1 .LASF37
     /tmp/cc3EnQ8m.s:2395   .debug_str:0000000000000193 .LASF38
     /tmp/cc3EnQ8m.s:2563   .debug_str:00000000000006cb .LASF135
     /tmp/cc3EnQ8m.s:2387   .debug_str:0000000000000175 .LASF50
     /tmp/cc3EnQ8m.s:2565   .debug_str:00000000000006d3 .LASF40
     /tmp/cc3EnQ8m.s:2473   .debug_str:000000000000044e .LASF41
     /tmp/cc3EnQ8m.s:2361   .debug_str:0000000000000083 .LASF42
     /tmp/cc3EnQ8m.s:2587   .debug_str:0000000000000805 .LASF43
     /tmp/cc3EnQ8m.s:2451   .debug_str:0000000000000398 .LASF44
     /tmp/cc3EnQ8m.s:2593   .debug_str:000000000000082c .LASF45
     /tmp/cc3EnQ8m.s:2509   .debug_str:0000000000000552 .LASF55
     /tmp/cc3EnQ8m.s:2617   .debug_str:00000000000008f4 .LASF57
     /tmp/cc3EnQ8m.s:2485   .debug_str:00000000000004a6 .LASF136
     /tmp/cc3EnQ8m.s:2507   .debug_str:000000000000054a .LASF46
     /tmp/cc3EnQ8m.s:2463   .debug_str:0000000000000407 .LASF47
     /tmp/cc3EnQ8m.s:2553   .debug_str:000000000000068e .LASF48
     /tmp/cc3EnQ8m.s:2385   .debug_str:000000000000014e .LASF49
     /tmp/cc3EnQ8m.s:2445   .debug_str:0000000000000364 .LASF65
     /tmp/cc3EnQ8m.s:2575   .debug_str:00000000000007bd .LASF67
     /tmp/cc3EnQ8m.s:2571   .debug_str:00000000000006f1 .LASF51
     /tmp/cc3EnQ8m.s:2561   .debug_str:00000000000006c2 .LASF52
     /tmp/cc3EnQ8m.s:2623   .debug_str:000000000000092b .LASF53
     /tmp/cc3EnQ8m.s:2421   .debug_str:00000000000002ac .LASF54
     /tmp/cc3EnQ8m.s:2347   .debug_str:000000000000000c .LASF56
     /tmp/cc3EnQ8m.s:2461   .debug_str:00000000000003fa .LASF58
     /tmp/cc3EnQ8m.s:2465   .debug_str:0000000000000419 .LASF59
     /tmp/cc3EnQ8m.s:2413   .debug_str:0000000000000260 .LASF60
     /tmp/cc3EnQ8m.s:2543   .debug_str:000000000000061f .LASF61
     /tmp/cc3EnQ8m.s:2523   .debug_str:00000000000005ad .LASF62
     /tmp/cc3EnQ8m.s:2531   .debug_str:00000000000005d6 .LASF63
     /tmp/cc3EnQ8m.s:2355   .debug_str:0000000000000066 .LASF64
     /tmp/cc3EnQ8m.s:2391   .debug_str:0000000000000185 .LASF66
     /tmp/cc3EnQ8m.s:2375   .debug_str:000000000000010a .LASF68
     /tmp/cc3EnQ8m.s:2619   .debug_str:000000000000090a .LASF137
     /tmp/cc3EnQ8m.s:2345   .debug_str:0000000000000007 .LASF69
     /tmp/cc3EnQ8m.s:2541   .debug_str:0000000000000619 .LASF70
     /tmp/cc3EnQ8m.s:2585   .debug_str:00000000000007fd .LASF71
GAS LISTING /tmp/cc3EnQ8m.s 			page 9


     /tmp/cc3EnQ8m.s:2577   .debug_str:00000000000007cd .LASF72
     /tmp/cc3EnQ8m.s:2583   .debug_str:00000000000007f4 .LASF73
     /tmp/cc3EnQ8m.s:2487   .debug_str:00000000000004ab .LASF74
     /tmp/cc3EnQ8m.s:2471   .debug_str:0000000000000443 .LASF75
     /tmp/cc3EnQ8m.s:2477   .debug_str:000000000000046a .LASF76
     /tmp/cc3EnQ8m.s:2569   .debug_str:00000000000006e3 .LASF77
     /tmp/cc3EnQ8m.s:2519   .debug_str:000000000000058d .LASF78
     /tmp/cc3EnQ8m.s:2505   .debug_str:0000000000000534 .LASF79
     /tmp/cc3EnQ8m.s:2363   .debug_str:000000000000008f .LASF138
     /tmp/cc3EnQ8m.s:2453   .debug_str:00000000000003a5 .LASF139
     /tmp/cc3EnQ8m.s:2381   .debug_str:0000000000000138 .LASF140
     /tmp/cc3EnQ8m.s:2353   .debug_str:000000000000003e .LASF141
     /tmp/cc3EnQ8m.s:2535   .debug_str:00000000000005e8 .LASF82
     /tmp/cc3EnQ8m.s:2527   .debug_str:00000000000005c4 .LASF80
     /tmp/cc3EnQ8m.s:2607   .debug_str:00000000000008a3 .LASF81
     /tmp/cc3EnQ8m.s:2501   .debug_str:0000000000000520 .LASF83
     /tmp/cc3EnQ8m.s:2343   .debug_str:0000000000000000 .LASF84
     /tmp/cc3EnQ8m.s:2377   .debug_str:000000000000011d .LASF85
     /tmp/cc3EnQ8m.s:2609   .debug_str:00000000000008ae .LASF86
     /tmp/cc3EnQ8m.s:2589   .debug_str:000000000000081c .LASF87
     /tmp/cc3EnQ8m.s:2419   .debug_str:0000000000000298 .LASF88
     /tmp/cc3EnQ8m.s:2603   .debug_str:0000000000000888 .LASF89
     /tmp/cc3EnQ8m.s:2439   .debug_str:000000000000032d .LASF90
     /tmp/cc3EnQ8m.s:2479   .debug_str:0000000000000472 .LASF91
     /tmp/cc3EnQ8m.s:2447   .debug_str:000000000000036a .LASF92
     /tmp/cc3EnQ8m.s:2359   .debug_str:0000000000000079 .LASF93
     /tmp/cc3EnQ8m.s:2415   .debug_str:000000000000026c .LASF94
     /tmp/cc3EnQ8m.s:2393   .debug_str:000000000000018e .LASF95
     /tmp/cc3EnQ8m.s:2373   .debug_str:00000000000000f3 .LASF96
     /tmp/cc3EnQ8m.s:2557   .debug_str:00000000000006a8 .LASF97
     /tmp/cc3EnQ8m.s:2611   .debug_str:00000000000008b4 .LASF98
     /tmp/cc3EnQ8m.s:2425   .debug_str:00000000000002c6 .LASF99
     /tmp/cc3EnQ8m.s:2407   .debug_str:0000000000000221 .LASF100
     /tmp/cc3EnQ8m.s:2383   .debug_str:0000000000000146 .LASF101
     /tmp/cc3EnQ8m.s:2489   .debug_str:00000000000004b7 .LASF102
     /tmp/cc3EnQ8m.s:2581   .debug_str:00000000000007e3 .LASF103
     /tmp/cc3EnQ8m.s:2455   .debug_str:00000000000003be .LASF104
     /tmp/cc3EnQ8m.s:2467   .debug_str:0000000000000429 .LASF105
     /tmp/cc3EnQ8m.s:2449   .debug_str:0000000000000384 .LASF106
     /tmp/cc3EnQ8m.s:2537   .debug_str:00000000000005f9 .LASF107
     /tmp/cc3EnQ8m.s:2389   .debug_str:000000000000017b .LASF108
     /tmp/cc3EnQ8m.s:2427   .debug_str:00000000000002cc .LASF109
     /tmp/cc3EnQ8m.s:2405   .debug_str:0000000000000209 .LASF110
     /tmp/cc3EnQ8m.s:2349   .debug_str:000000000000001c .LASF111
     /tmp/cc3EnQ8m.s:2367   .debug_str:00000000000000ba .LASF112
     /tmp/cc3EnQ8m.s:2625   .debug_str:0000000000000938 .LASF113
     /tmp/cc3EnQ8m.s:2513   .debug_str:0000000000000566 .LASF114
     /tmp/cc3EnQ8m.s:2567   .debug_str:00000000000006de .LASF115
     /tmp/cc3EnQ8m.s:2595   .debug_str:0000000000000845 .LASF116
     /tmp/cc3EnQ8m.s:2605   .debug_str:0000000000000891 .LASF117
     /tmp/cc3EnQ8m.s:105    .text:00000000000000a4 .LFB58
     /tmp/cc3EnQ8m.s:178    .text:000000000000012c .LFE58
     /tmp/cc3EnQ8m.s:2397   .debug_str:00000000000001b4 .LASF118
     /tmp/cc3EnQ8m.s:2579   .debug_str:00000000000007d7 .LASF119
     /tmp/cc3EnQ8m.s:2533   .debug_str:00000000000005db .LASF120
     /tmp/cc3EnQ8m.s:129    .text:00000000000000c8 .LBB2
     /tmp/cc3EnQ8m.s:154    .text:0000000000000100 .LBE2
GAS LISTING /tmp/cc3EnQ8m.s 			page 10


     /tmp/cc3EnQ8m.s:2283   .debug_loc:0000000000000000 .LLST3
     /tmp/cc3EnQ8m.s:145    .text:00000000000000f4 .LVL12
     /tmp/cc3EnQ8m.s:2621   .debug_str:0000000000000921 .LASF142
     /tmp/cc3EnQ8m.s:17     .text:0000000000000000 .LFB57
     /tmp/cc3EnQ8m.s:99     .text:00000000000000a4 .LFE57
     /tmp/cc3EnQ8m.s:2295   .debug_loc:0000000000000037 .LLST0
     /tmp/cc3EnQ8m.s:2481   .debug_str:000000000000047a .LASF121
     /tmp/cc3EnQ8m.s:2309   .debug_loc:0000000000000070 .LLST1
     /tmp/cc3EnQ8m.s:2316   .debug_loc:0000000000000093 .LLST2
     /tmp/cc3EnQ8m.s:52     .text:0000000000000038 .LVL4
     /tmp/cc3EnQ8m.s:59     .text:000000000000004c .LVL5
     /tmp/cc3EnQ8m.s:64     .text:000000000000005c .LVL6
     /tmp/cc3EnQ8m.s:69     .text:0000000000000068 .LVL7
     /tmp/cc3EnQ8m.s:2483   .debug_str:0000000000000485 .LASF122
     /tmp/cc3EnQ8m.s:2499   .debug_str:000000000000050d .LASF123
     /tmp/cc3EnQ8m.s:2613   .debug_str:00000000000008cd .LASF124
     /tmp/cc3EnQ8m.s:2403   .debug_str:00000000000001fa .LASF125
     /tmp/cc3EnQ8m.s:2497   .debug_str:0000000000000504 .LASF126
     /tmp/cc3EnQ8m.s:2493   .debug_str:00000000000004e1 .LASF127
     /tmp/cc3EnQ8m.s:2517   .debug_str:0000000000000582 .LASF128
     /tmp/cc3EnQ8m.s:128    .text:00000000000000c8 .LVL10
     /tmp/cc3EnQ8m.s:133    .text:00000000000000d0 .LVL11
     /tmp/cc3EnQ8m.s:173    .text:0000000000000124 .LVL14
     /tmp/cc3EnQ8m.s:21     .text:0000000000000000 .LVL0
     /tmp/cc3EnQ8m.s:41     .text:0000000000000020 .LVL2
     /tmp/cc3EnQ8m.s:37     .text:000000000000001c .LVL1
     /tmp/cc3EnQ8m.s:77     .text:0000000000000074 .LVL8
     /tmp/cc3EnQ8m.s:46     .text:0000000000000024 .LVL3
     /tmp/cc3EnQ8m.s:197    .debug_info:0000000000000000 .Ldebug_info0

UNDEFINED SYMBOLS
_Z11printStringPKc
_Z8printIntiii
_Z10time_sleepm
_Z13thread_createPP3TCBPFvPvES2_
